ARM GAS  /tmp/ccDfZCfa.s 			page 1


   1              		.cpu cortex-m4
   2              		.eabi_attribute 27, 1
   3              		.eabi_attribute 28, 1
   4              		.eabi_attribute 20, 1
   5              		.eabi_attribute 21, 1
   6              		.eabi_attribute 23, 3
   7              		.eabi_attribute 24, 1
   8              		.eabi_attribute 25, 1
   9              		.eabi_attribute 26, 1
  10              		.eabi_attribute 30, 1
  11              		.eabi_attribute 34, 1
  12              		.eabi_attribute 18, 4
  13              		.file	"fuzzy_pid.cpp"
  14              		.text
  15              	.Ltext0:
  16              		.cfi_sections	.debug_frame
  17              		.section	.text._ZN9fuzzy_pid5trimfEffff,"ax",%progbits
  18              		.align	1
  19              		.global	_ZN9fuzzy_pid5trimfEffff
  20              		.arch armv7e-m
  21              		.syntax unified
  22              		.thumb
  23              		.thumb_func
  24              		.fpu fpv4-sp-d16
  26              	_ZN9fuzzy_pid5trimfEffff:
  27              	.LVL0:
  28              	.LFB1643:
  29              		.file 1 "Core/Src/control/fuzzy_pid.cpp"
   1:Core/Src/control/fuzzy_pid.cpp **** ﻿#include"fuzzy_pid.h"
   2:Core/Src/control/fuzzy_pid.cpp **** //set of output rules defined based upon the relation between input(error & d_error) and output par
   3:Core/Src/control/fuzzy_pid.cpp **** 	int kp_rules[no_of_fuzzy_sets][no_of_fuzzy_sets] = 
   4:Core/Src/control/fuzzy_pid.cpp **** 	                       { {HB,HB,HM,HM,HS,ZO,ZO},
   5:Core/Src/control/fuzzy_pid.cpp **** 							 {HB,HB,HM,HS,HS,ZO,LS},
   6:Core/Src/control/fuzzy_pid.cpp **** 							 {HM,HM,HM,HS,ZO,LS,LS},
   7:Core/Src/control/fuzzy_pid.cpp **** 							 {HM,HM,HS,ZO,LS,LM,LM},
   8:Core/Src/control/fuzzy_pid.cpp **** 							 {HS,HS,ZO,LS,LS,LM,LM},
   9:Core/Src/control/fuzzy_pid.cpp **** 							 {HS,ZO,LS,LM,LM,LM,LB},
  10:Core/Src/control/fuzzy_pid.cpp **** 							 {ZO,ZO,LM,LM,LM,LB,LB} };
  11:Core/Src/control/fuzzy_pid.cpp **** 	int ki_rules[no_of_fuzzy_sets][no_of_fuzzy_sets] = 
  12:Core/Src/control/fuzzy_pid.cpp **** 	                       { {LB,LB,LM,LM,LS,ZO,ZO},
  13:Core/Src/control/fuzzy_pid.cpp **** 							 {LB,LB,LM,LS,LS,ZO,ZO},
  14:Core/Src/control/fuzzy_pid.cpp **** 							 {LB,LM,LS,LS,ZO,HS,HS},
  15:Core/Src/control/fuzzy_pid.cpp **** 							 {LM,LM,LS,ZO,HS,HM,HM},
  16:Core/Src/control/fuzzy_pid.cpp **** 							 {LM,LS,ZO,HS,HS,HM,HB},
  17:Core/Src/control/fuzzy_pid.cpp **** 							 {ZO,ZO,HS,HS,HM,HB,HB},
  18:Core/Src/control/fuzzy_pid.cpp **** 							 {ZO,ZO,HS,HM,HM,HB,HB} };
  19:Core/Src/control/fuzzy_pid.cpp **** 	int kd_rules[no_of_fuzzy_sets][no_of_fuzzy_sets] = 
  20:Core/Src/control/fuzzy_pid.cpp **** 	                       { {HS,LS,LB,LB,LB,LM,HS},
  21:Core/Src/control/fuzzy_pid.cpp **** 							 {HS,LS,LB,LM,LM,LS,ZO},
  22:Core/Src/control/fuzzy_pid.cpp **** 							 {ZO,LS,LM,LM,LS,LS,ZO},
  23:Core/Src/control/fuzzy_pid.cpp **** 							 {ZO,LS,LS,LS,LS,LS,ZO},
  24:Core/Src/control/fuzzy_pid.cpp **** 							 {ZO,ZO,ZO,ZO,ZO,ZO,ZO},
  25:Core/Src/control/fuzzy_pid.cpp **** 							 {HB,LS,HS,HS,HS,HS,HB},
  26:Core/Src/control/fuzzy_pid.cpp **** 							 {HB,HM,HM,HM,HS,HS,HB} };
  27:Core/Src/control/fuzzy_pid.cpp **** 	//set of membership function used to define each input and output parameters,with in range -3 to 3
  28:Core/Src/control/fuzzy_pid.cpp **** 	// where each 3 consecutive term represents the triangular membershipfunction whch is used to find
  29:Core/Src/control/fuzzy_pid.cpp **** 	//float e_mf[no_of_fuzzy_sets*3] =  { -0.3,-0.3,-0.2,-0.3,-0.2,-0.1,-0.2,-0.1,0,-0.1,0,0.1,0,0.1,0
ARM GAS  /tmp/ccDfZCfa.s 			page 2


  30:Core/Src/control/fuzzy_pid.cpp **** 	//float de_mf[no_of_fuzzy_sets*3] = { -0.3,-0.3,-0.2,-0.3,-0.2,-0.1,-0.2,-0.1,0,-0.1,0,0.1,0,0.1,0
  31:Core/Src/control/fuzzy_pid.cpp **** 	
  32:Core/Src/control/fuzzy_pid.cpp **** 	//float e_mf[no_of_fuzzy_sets*3] = { -24,-24,-16,-24,-16,0,-24,-8,8,-16,0,16,-8,8,24,0,16,24,8,24,
  33:Core/Src/control/fuzzy_pid.cpp ****     //float de_mf[no_of_fuzzy_sets*3] = { -24,-24,-16,-24,-16,0,-24,-8,8,-16,0,16,-8,8,24,0,16,24,8
  34:Core/Src/control/fuzzy_pid.cpp **** 	float e_mf[no_of_fuzzy_sets*3] = { -3,-3,-2,-3,-2,0,-3,-1,1,-2,0,2,-1,1,3,0,2,3,1,3,3 };
  35:Core/Src/control/fuzzy_pid.cpp **** 	float de_mf[no_of_fuzzy_sets*3] = { -3,-3,-2,-3,-2,0,-3,-1,1,-2,0,2,-1,1,3,0,2,3,1,3,3 };
  36:Core/Src/control/fuzzy_pid.cpp **** 	//float e_mf[no_of_fuzzy_sets*3] = { -0.3,-0.3,-0.2,-0.3,-0.2,0,-0.3,-0.1,0.1,-0.2,0,0.2,-0.1,0.1,
  37:Core/Src/control/fuzzy_pid.cpp **** 	//float de_mf[no_of_fuzzy_sets*3] ={ -0.3,-0.3,-0.2,-0.3,-0.2,0,-0.3,-0.1,0.1,-0.2,0,0.2,-0.1,0.1,
  38:Core/Src/control/fuzzy_pid.cpp **** 	float Kp_mf[no_of_fuzzy_sets*3] ={ -0.03,-0.03,-0.02,-0.03,-0.02,0,-0.03,-0.01,0.01,-0.02,0,0.02,-
  39:Core/Src/control/fuzzy_pid.cpp **** 	float Ki_mf[no_of_fuzzy_sets*3] = { -0.03,-0.03,-0.02,-0.03,-0.02,0,-0.03,-0.01,0.01,-0.02,0,0.02,
  40:Core/Src/control/fuzzy_pid.cpp **** 	float Kd_mf[no_of_fuzzy_sets*3] = { -0.03,-0.03,-0.02,-0.03,-0.02,0,-0.03,-0.01,0.01,-0.02,0,0.02,
  41:Core/Src/control/fuzzy_pid.cpp **** float fuzzy_pid::trimf(float x, float a, float b, float c)
  42:Core/Src/control/fuzzy_pid.cpp **** {
  30              		.loc 1 42 1 view -0
  31              		.cfi_startproc
  32              		@ args = 0, pretend = 0, frame = 0
  33              		@ frame_needed = 0, uses_anonymous_args = 0
  34              		@ link register save eliminated.
  43:Core/Src/control/fuzzy_pid.cpp **** 	float out;
  35              		.loc 1 43 2 view .LVU1
  44:Core/Src/control/fuzzy_pid.cpp **** 	if (x > a && x <= b)
  36              		.loc 1 44 2 view .LVU2
  37 0000 B4EEE00A 		vcmpe.f32	s0, s1
  38 0004 F1EE10FA 		vmrs	APSR_nzcv, FPSCR
  39 0008 0BDD     		ble	.L2
  40              		.loc 1 44 12 is_stmt 0 discriminator 1 view .LVU3
  41 000a B4EEC10A 		vcmpe.f32	s0, s2
  42 000e F1EE10FA 		vmrs	APSR_nzcv, FPSCR
  43 0012 06D8     		bhi	.L2
  45:Core/Src/control/fuzzy_pid.cpp **** 		out = (x - a) / (b - a);
  44              		.loc 1 45 3 is_stmt 1 view .LVU4
  45              		.loc 1 45 12 is_stmt 0 view .LVU5
  46 0014 70EE607A 		vsub.f32	s15, s0, s1
  47              		.loc 1 45 22 view .LVU6
  48 0018 31EE601A 		vsub.f32	s2, s2, s1
  49              	.LVL1:
  50              		.loc 1 45 7 view .LVU7
  51 001c 87EE810A 		vdiv.f32	s0, s15, s2
  52              	.LVL2:
  53              		.loc 1 45 7 view .LVU8
  54 0020 7047     		bx	lr
  55              	.LVL3:
  56              	.L2:
  46:Core/Src/control/fuzzy_pid.cpp **** 	else if (x > b && x <= c)
  57              		.loc 1 46 7 is_stmt 1 view .LVU9
  58 0022 B4EEC10A 		vcmpe.f32	s0, s2
  59 0026 F1EE10FA 		vmrs	APSR_nzcv, FPSCR
  60 002a 0BDD     		ble	.L14
  61              		.loc 1 46 17 is_stmt 0 discriminator 1 view .LVU10
  62 002c B4EEE10A 		vcmpe.f32	s0, s3
  63 0030 F1EE10FA 		vmrs	APSR_nzcv, FPSCR
  64 0034 09D8     		bhi	.L15
  47:Core/Src/control/fuzzy_pid.cpp **** 		out = (c - x) / (c - b);
  65              		.loc 1 47 3 is_stmt 1 view .LVU11
  66              		.loc 1 47 12 is_stmt 0 view .LVU12
  67 0036 71EEC07A 		vsub.f32	s15, s3, s0
  68              		.loc 1 47 22 view .LVU13
ARM GAS  /tmp/ccDfZCfa.s 			page 3


  69 003a 71EEC11A 		vsub.f32	s3, s3, s2
  70              	.LVL4:
  71              		.loc 1 47 7 view .LVU14
  72 003e 87EEA10A 		vdiv.f32	s0, s15, s3
  73              	.LVL5:
  74              		.loc 1 47 7 view .LVU15
  75 0042 7047     		bx	lr
  76              	.LVL6:
  77              	.L14:
  48:Core/Src/control/fuzzy_pid.cpp **** 	else
  49:Core/Src/control/fuzzy_pid.cpp **** 		out = 0;
  78              		.loc 1 49 7 view .LVU16
  79 0044 9FED020A 		vldr.32	s0, .L16
  80              	.LVL7:
  81              		.loc 1 49 7 view .LVU17
  82 0048 7047     		bx	lr
  83              	.LVL8:
  84              	.L15:
  85              		.loc 1 49 7 view .LVU18
  86 004a 9FED010A 		vldr.32	s0, .L16
  87              	.LVL9:
  50:Core/Src/control/fuzzy_pid.cpp **** 	return out;
  88              		.loc 1 50 2 is_stmt 1 view .LVU19
  51:Core/Src/control/fuzzy_pid.cpp **** }
  89              		.loc 1 51 1 is_stmt 0 view .LVU20
  90 004e 7047     		bx	lr
  91              	.L17:
  92              		.align	2
  93              	.L16:
  94 0050 00000000 		.word	0
  95              		.cfi_endproc
  96              	.LFE1643:
  98              		.section	.text._ZN9fuzzy_pid8invTrimfEffff,"ax",%progbits
  99              		.align	1
 100              		.global	_ZN9fuzzy_pid8invTrimfEffff
 101              		.syntax unified
 102              		.thumb
 103              		.thumb_func
 104              		.fpu fpv4-sp-d16
 106              	_ZN9fuzzy_pid8invTrimfEffff:
 107              	.LVL10:
 108              	.LFB1644:
  52:Core/Src/control/fuzzy_pid.cpp **** float fuzzy_pid::invTrimf(float x, float a, float b, float c)
  53:Core/Src/control/fuzzy_pid.cpp **** {
 109              		.loc 1 53 1 is_stmt 1 view -0
 110              		.cfi_startproc
 111              		@ args = 0, pretend = 0, frame = 0
 112              		@ frame_needed = 0, uses_anonymous_args = 0
 113              		@ link register save eliminated.
  54:Core/Src/control/fuzzy_pid.cpp **** 	float out1,out2;
 114              		.loc 1 54 2 view .LVU22
  55:Core/Src/control/fuzzy_pid.cpp **** 	out1=(b-a)*x+a;
 115              		.loc 1 55 2 view .LVU23
 116              		.loc 1 55 9 is_stmt 0 view .LVU24
 117 0000 71EE607A 		vsub.f32	s15, s2, s1
 118              		.loc 1 55 12 view .LVU25
 119 0004 67EE807A 		vmul.f32	s15, s15, s0
ARM GAS  /tmp/ccDfZCfa.s 			page 4


 120              		.loc 1 55 6 view .LVU26
 121 0008 77EEA00A 		vadd.f32	s1, s15, s1
 122              	.LVL11:
  56:Core/Src/control/fuzzy_pid.cpp **** 	out2=c-(c-b)*x;
 123              		.loc 1 56 2 is_stmt 1 view .LVU27
 124              		.loc 1 56 11 is_stmt 0 view .LVU28
 125 000c 31EEC11A 		vsub.f32	s2, s3, s2
 126              	.LVL12:
 127              		.loc 1 56 14 view .LVU29
 128 0010 21EE001A 		vmul.f32	s2, s2, s0
 129              		.loc 1 56 6 view .LVU30
 130 0014 31EEC11A 		vsub.f32	s2, s3, s2
 131              	.LVL13:
  57:Core/Src/control/fuzzy_pid.cpp **** 	return (out1+out2)/2;
 132              		.loc 1 57 2 is_stmt 1 view .LVU31
 133              		.loc 1 57 14 is_stmt 0 view .LVU32
 134 0018 30EE811A 		vadd.f32	s2, s1, s2
 135              	.LVL14:
  58:Core/Src/control/fuzzy_pid.cpp **** }
 136              		.loc 1 58 1 view .LVU33
 137 001c B6EE000A 		vmov.f32	s0, #5.0e-1
 138              	.LVL15:
 139              		.loc 1 58 1 view .LVU34
 140 0020 21EE000A 		vmul.f32	s0, s2, s0
 141 0024 7047     		bx	lr
 142              		.cfi_endproc
 143              	.LFE1644:
 145              		.section	.text._ZN9fuzzy_pidC2Ev,"ax",%progbits
 146              		.align	1
 147              		.global	_ZN9fuzzy_pidC2Ev
 148              		.syntax unified
 149              		.thumb
 150              		.thumb_func
 151              		.fpu fpv4-sp-d16
 153              	_ZN9fuzzy_pidC2Ev:
 154              	.LVL16:
 155              	.LFB1646:
  59:Core/Src/control/fuzzy_pid.cpp **** 
  60:Core/Src/control/fuzzy_pid.cpp **** fuzzy_pid::fuzzy_pid()
 156              		.loc 1 60 1 is_stmt 1 view -0
 157              		.cfi_startproc
 158              		@ args = 0, pretend = 0, frame = 0
 159              		@ frame_needed = 0, uses_anonymous_args = 0
 160              		@ link register save eliminated.
 161              	.LBB2:
  61:Core/Src/control/fuzzy_pid.cpp **** {
  62:Core/Src/control/fuzzy_pid.cpp **** 	this->outMax = 0;
 162              		.loc 1 62 2 view .LVU36
 163              		.loc 1 62 15 is_stmt 0 view .LVU37
 164 0000 0022     		movs	r2, #0
 165 0002 0260     		str	r2, [r0]	@ float
  63:Core/Src/control/fuzzy_pid.cpp **** 	this->outMin =0;
 166              		.loc 1 63 2 is_stmt 1 view .LVU38
 167              		.loc 1 63 15 is_stmt 0 view .LVU39
 168 0004 4260     		str	r2, [r0, #4]	@ float
  64:Core/Src/control/fuzzy_pid.cpp **** 	this->output=0;
 169              		.loc 1 64 2 is_stmt 1 view .LVU40
ARM GAS  /tmp/ccDfZCfa.s 			page 5


 170              		.loc 1 64 14 is_stmt 0 view .LVU41
 171 0006 C261     		str	r2, [r0, #28]	@ float
  65:Core/Src/control/fuzzy_pid.cpp **** 	this->error = 0;
 172              		.loc 1 65 2 is_stmt 1 view .LVU42
 173              		.loc 1 65 14 is_stmt 0 view .LVU43
 174 0008 8260     		str	r2, [r0, #8]	@ float
  66:Core/Src/control/fuzzy_pid.cpp **** 	this->d_error = 0;
 175              		.loc 1 66 2 is_stmt 1 view .LVU44
 176              		.loc 1 66 16 is_stmt 0 view .LVU45
 177 000a C260     		str	r2, [r0, #12]	@ float
  67:Core/Src/control/fuzzy_pid.cpp **** 	this->error_l = 0;
 178              		.loc 1 67 2 is_stmt 1 view .LVU46
 179              		.loc 1 67 16 is_stmt 0 view .LVU47
 180 000c 0261     		str	r2, [r0, #16]	@ float
  68:Core/Src/control/fuzzy_pid.cpp **** 	this->error_ll = 0;
 181              		.loc 1 68 2 is_stmt 1 view .LVU48
 182              		.loc 1 68 17 is_stmt 0 view .LVU49
 183 000e 4261     		str	r2, [r0, #20]	@ float
  69:Core/Src/control/fuzzy_pid.cpp **** 	this->kp = 0;
 184              		.loc 1 69 2 is_stmt 1 view .LVU50
 185              		.loc 1 69 11 is_stmt 0 view .LVU51
 186 0010 0262     		str	r2, [r0, #32]	@ float
  70:Core/Src/control/fuzzy_pid.cpp **** 	this->ki = 0;
 187              		.loc 1 70 2 is_stmt 1 view .LVU52
 188              		.loc 1 70 11 is_stmt 0 view .LVU53
 189 0012 4262     		str	r2, [r0, #36]	@ float
  71:Core/Src/control/fuzzy_pid.cpp **** 	this->kd = 0;
 190              		.loc 1 71 2 is_stmt 1 view .LVU54
 191              		.loc 1 71 11 is_stmt 0 view .LVU55
 192 0014 8262     		str	r2, [r0, #40]	@ float
  72:Core/Src/control/fuzzy_pid.cpp **** 	this->maxValue=0;
 193              		.loc 1 72 2 is_stmt 1 view .LVU56
 194              		.loc 1 72 16 is_stmt 0 view .LVU57
 195 0016 8263     		str	r2, [r0, #56]	@ float
 196              	.LBE2:
  73:Core/Src/control/fuzzy_pid.cpp **** }
 197              		.loc 1 73 1 view .LVU58
 198 0018 7047     		bx	lr
 199              		.cfi_endproc
 200              	.LFE1646:
 202              		.global	_ZN9fuzzy_pidC1Ev
 203              		.thumb_set _ZN9fuzzy_pidC1Ev,_ZN9fuzzy_pidC2Ev
 204              		.section	.text._ZN9fuzzy_pid20calculate_del_outputEfff,"ax",%progbits
 205              		.align	1
 206              		.global	_ZN9fuzzy_pid20calculate_del_outputEfff
 207              		.syntax unified
 208              		.thumb
 209              		.thumb_func
 210              		.fpu fpv4-sp-d16
 212              	_ZN9fuzzy_pid20calculate_del_outputEfff:
 213              	.LVL17:
 214              	.LFB1649:
  74:Core/Src/control/fuzzy_pid.cpp **** void fuzzy_pid::set_parameter( float kp,float ki,float kd,float outMin, float outMax)
  75:Core/Src/control/fuzzy_pid.cpp **** {
  76:Core/Src/control/fuzzy_pid.cpp **** 	this->outMax = outMax;
  77:Core/Src/control/fuzzy_pid.cpp **** 	this->outMin = outMin;
  78:Core/Src/control/fuzzy_pid.cpp **** 	this->kp = kp;
ARM GAS  /tmp/ccDfZCfa.s 			page 6


  79:Core/Src/control/fuzzy_pid.cpp **** 	this->ki = ki;
  80:Core/Src/control/fuzzy_pid.cpp **** 	this->kd = kd;
  81:Core/Src/control/fuzzy_pid.cpp **** 	calculate_del_output(this->kp, this->ki, this->kd);
  82:Core/Src/control/fuzzy_pid.cpp **** }
  83:Core/Src/control/fuzzy_pid.cpp **** // based on the descretization of pid algorithm keeping sampling timeperiod to be constant
  84:Core/Src/control/fuzzy_pid.cpp **** void fuzzy_pid::calculate_del_output(float kp_, float ki_, float kd_)
  85:Core/Src/control/fuzzy_pid.cpp **** {
 215              		.loc 1 85 1 is_stmt 1 view -0
 216              		.cfi_startproc
 217              		@ args = 0, pretend = 0, frame = 0
 218              		@ frame_needed = 0, uses_anonymous_args = 0
 219              		@ link register save eliminated.
  86:Core/Src/control/fuzzy_pid.cpp **** 
  87:Core/Src/control/fuzzy_pid.cpp **** 	A = kp_ + ki_ + kd_;
 220              		.loc 1 87 2 view .LVU60
 221              		.loc 1 87 10 is_stmt 0 view .LVU61
 222 0000 70EE207A 		vadd.f32	s15, s0, s1
 223              		.loc 1 87 16 view .LVU62
 224 0004 77EE817A 		vadd.f32	s15, s15, s2
 225              		.loc 1 87 4 view .LVU63
 226 0008 C0ED0B7A 		vstr.32	s15, [r0, #44]
  88:Core/Src/control/fuzzy_pid.cpp **** 	B = kp_-ki_ - 2 * kd_;
 227              		.loc 1 88 2 is_stmt 1 view .LVU64
 228              		.loc 1 88 9 is_stmt 0 view .LVU65
 229 000c 30EE600A 		vsub.f32	s0, s0, s1
 230              	.LVL18:
 231              		.loc 1 88 18 view .LVU66
 232 0010 71EE010A 		vadd.f32	s1, s2, s2
 233              	.LVL19:
 234              		.loc 1 88 14 view .LVU67
 235 0014 30EE600A 		vsub.f32	s0, s0, s1
 236              		.loc 1 88 4 view .LVU68
 237 0018 80ED0C0A 		vstr.32	s0, [r0, #48]
  89:Core/Src/control/fuzzy_pid.cpp **** 	C = kd_;
 238              		.loc 1 89 2 is_stmt 1 view .LVU69
 239              		.loc 1 89 4 is_stmt 0 view .LVU70
 240 001c 80ED0D1A 		vstr.32	s2, [r0, #52]
  90:Core/Src/control/fuzzy_pid.cpp **** 	del_out= A * error + B * error_l + C * error_ll;
 241              		.loc 1 90 2 is_stmt 1 view .LVU71
 242              		.loc 1 90 15 is_stmt 0 view .LVU72
 243 0020 90ED027A 		vldr.32	s14, [r0, #8]
 244              		.loc 1 90 13 view .LVU73
 245 0024 67EE877A 		vmul.f32	s15, s15, s14
 246              		.loc 1 90 27 view .LVU74
 247 0028 90ED047A 		vldr.32	s14, [r0, #16]
 248              		.loc 1 90 25 view .LVU75
 249 002c 20EE070A 		vmul.f32	s0, s0, s14
 250              		.loc 1 90 21 view .LVU76
 251 0030 77EE807A 		vadd.f32	s15, s15, s0
 252              		.loc 1 90 41 view .LVU77
 253 0034 90ED057A 		vldr.32	s14, [r0, #20]
 254              		.loc 1 90 39 view .LVU78
 255 0038 27EE011A 		vmul.f32	s2, s14, s2
 256              	.LVL20:
 257              		.loc 1 90 35 view .LVU79
 258 003c 37EE811A 		vadd.f32	s2, s15, s2
 259              		.loc 1 90 9 view .LVU80
ARM GAS  /tmp/ccDfZCfa.s 			page 7


 260 0040 80ED061A 		vstr.32	s2, [r0, #24]
  91:Core/Src/control/fuzzy_pid.cpp **** 	output+=del_out;
 261              		.loc 1 91 2 is_stmt 1 view .LVU81
 262              		.loc 1 91 8 is_stmt 0 view .LVU82
 263 0044 D0ED077A 		vldr.32	s15, [r0, #28]
 264 0048 37EE811A 		vadd.f32	s2, s15, s2
 265 004c 80ED071A 		vstr.32	s2, [r0, #28]
  92:Core/Src/control/fuzzy_pid.cpp **** }
 266              		.loc 1 92 1 view .LVU83
 267 0050 7047     		bx	lr
 268              		.cfi_endproc
 269              	.LFE1649:
 271              		.section	.text._ZN9fuzzy_pid13set_parameterEfffff,"ax",%progbits
 272              		.align	1
 273              		.global	_ZN9fuzzy_pid13set_parameterEfffff
 274              		.syntax unified
 275              		.thumb
 276              		.thumb_func
 277              		.fpu fpv4-sp-d16
 279              	_ZN9fuzzy_pid13set_parameterEfffff:
 280              	.LVL21:
 281              	.LFB1648:
  75:Core/Src/control/fuzzy_pid.cpp **** 	this->outMax = outMax;
 282              		.loc 1 75 1 is_stmt 1 view -0
 283              		.cfi_startproc
 284              		@ args = 0, pretend = 0, frame = 0
 285              		@ frame_needed = 0, uses_anonymous_args = 0
  75:Core/Src/control/fuzzy_pid.cpp **** 	this->outMax = outMax;
 286              		.loc 1 75 1 is_stmt 0 view .LVU85
 287 0000 08B5     		push	{r3, lr}
 288              	.LCFI0:
 289              		.cfi_def_cfa_offset 8
 290              		.cfi_offset 3, -8
 291              		.cfi_offset 14, -4
  76:Core/Src/control/fuzzy_pid.cpp **** 	this->outMin = outMin;
 292              		.loc 1 76 2 is_stmt 1 view .LVU86
  76:Core/Src/control/fuzzy_pid.cpp **** 	this->outMin = outMin;
 293              		.loc 1 76 15 is_stmt 0 view .LVU87
 294 0002 80ED002A 		vstr.32	s4, [r0]
  77:Core/Src/control/fuzzy_pid.cpp **** 	this->kp = kp;
 295              		.loc 1 77 2 is_stmt 1 view .LVU88
  77:Core/Src/control/fuzzy_pid.cpp **** 	this->kp = kp;
 296              		.loc 1 77 15 is_stmt 0 view .LVU89
 297 0006 C0ED011A 		vstr.32	s3, [r0, #4]
  78:Core/Src/control/fuzzy_pid.cpp **** 	this->ki = ki;
 298              		.loc 1 78 2 is_stmt 1 view .LVU90
  78:Core/Src/control/fuzzy_pid.cpp **** 	this->ki = ki;
 299              		.loc 1 78 11 is_stmt 0 view .LVU91
 300 000a 80ED080A 		vstr.32	s0, [r0, #32]
  79:Core/Src/control/fuzzy_pid.cpp **** 	this->kd = kd;
 301              		.loc 1 79 2 is_stmt 1 view .LVU92
  79:Core/Src/control/fuzzy_pid.cpp **** 	this->kd = kd;
 302              		.loc 1 79 11 is_stmt 0 view .LVU93
 303 000e C0ED090A 		vstr.32	s1, [r0, #36]
  80:Core/Src/control/fuzzy_pid.cpp **** 	calculate_del_output(this->kp, this->ki, this->kd);
 304              		.loc 1 80 2 is_stmt 1 view .LVU94
  80:Core/Src/control/fuzzy_pid.cpp **** 	calculate_del_output(this->kp, this->ki, this->kd);
ARM GAS  /tmp/ccDfZCfa.s 			page 8


 305              		.loc 1 80 11 is_stmt 0 view .LVU95
 306 0012 80ED0A1A 		vstr.32	s2, [r0, #40]
  81:Core/Src/control/fuzzy_pid.cpp **** }
 307              		.loc 1 81 2 is_stmt 1 view .LVU96
  81:Core/Src/control/fuzzy_pid.cpp **** }
 308              		.loc 1 81 22 is_stmt 0 view .LVU97
 309 0016 FFF7FEFF 		bl	_ZN9fuzzy_pid20calculate_del_outputEfff
 310              	.LVL22:
  82:Core/Src/control/fuzzy_pid.cpp **** // based on the descretization of pid algorithm keeping sampling timeperiod to be constant
 311              		.loc 1 82 1 view .LVU98
 312 001a 08BD     		pop	{r3, pc}
 313              		.cfi_endproc
 314              	.LFE1648:
 316              		.section	.text._ZN9fuzzy_pid24calculate_del_tuningGainEPA7_iPf,"ax",%progbits
 317              		.align	1
 318              		.global	_ZN9fuzzy_pid24calculate_del_tuningGainEPA7_iPf
 319              		.syntax unified
 320              		.thumb
 321              		.thumb_func
 322              		.fpu fpv4-sp-d16
 324              	_ZN9fuzzy_pid24calculate_del_tuningGainEPA7_iPf:
 325              	.LVL23:
 326              	.LFB1650:
  93:Core/Src/control/fuzzy_pid.cpp **** float fuzzy_pid::calculate_del_tuningGain(int rules[no_of_fuzzy_sets][no_of_fuzzy_sets],float mf[no
  94:Core/Src/control/fuzzy_pid.cpp **** {
 327              		.loc 1 94 1 is_stmt 1 view -0
 328              		.cfi_startproc
 329              		@ args = 0, pretend = 0, frame = 0
 330              		@ frame_needed = 0, uses_anonymous_args = 0
 331              		.loc 1 94 1 is_stmt 0 view .LVU100
 332 0000 10B5     		push	{r4, lr}
 333              	.LCFI1:
 334              		.cfi_def_cfa_offset 8
 335              		.cfi_offset 4, -8
 336              		.cfi_offset 14, -4
 337 0002 9646     		mov	lr, r2
  95:Core/Src/control/fuzzy_pid.cpp **** 	for (int i = 0; i < 7; i++)
 338              		.loc 1 95 2 is_stmt 1 view .LVU101
 339              	.LVL24:
 340              	.LBB3:
 341              		.loc 1 95 11 is_stmt 0 view .LVU102
 342 0004 0022     		movs	r2, #0
 343              	.LVL25:
 344              		.loc 1 95 11 view .LVU103
 345 0006 21E0     		b	.L29
 346              	.LVL26:
 347              	.L26:
 348              	.LBB4:
  96:Core/Src/control/fuzzy_pid.cpp **** 	{
  97:Core/Src/control/fuzzy_pid.cpp **** 		for (int j = 0; j < 7; j++)
  98:Core/Src/control/fuzzy_pid.cpp **** 		{
  99:Core/Src/control/fuzzy_pid.cpp ****            maxIndex[i][j]=e_sets[i]>de_sets[j]?de_sets[j]:e_sets[i];
 349              		.loc 1 99 26 discriminator 4 view .LVU104
 350 0008 C2EBC203 		rsb	r3, r2, r2, lsl #3
 351 000c 6344     		add	r3, r3, ip
 352 000e 0E33     		adds	r3, r3, #14
 353 0010 00EB8303 		add	r3, r0, r3, lsl #2
ARM GAS  /tmp/ccDfZCfa.s 			page 9


 354 0014 C3ED017A 		vstr.32	s15, [r3, #4]
  97:Core/Src/control/fuzzy_pid.cpp **** 		{
 355              		.loc 1 97 3 is_stmt 1 discriminator 4 view .LVU105
 356 0018 0CF1010C 		add	ip, ip, #1
 357              	.LVL27:
 358              	.L28:
  97:Core/Src/control/fuzzy_pid.cpp **** 		{
 359              		.loc 1 97 21 discriminator 2 view .LVU106
 360 001c BCF1060F 		cmp	ip, #6
 361 0020 13DC     		bgt	.L25
 362              		.loc 1 99 12 view .LVU107
 363              		.loc 1 99 35 is_stmt 0 view .LVU108
 364 0022 02F14003 		add	r3, r2, #64
 365 0026 00EB8303 		add	r3, r0, r3, lsl #2
 366 002a D3ED007A 		vldr.32	s15, [r3]
 367              		.loc 1 99 46 view .LVU109
 368 002e 0CF14603 		add	r3, ip, #70
 369 0032 00EB8303 		add	r3, r0, r3, lsl #2
 370 0036 93ED017A 		vldr.32	s14, [r3, #4]
 371              		.loc 1 99 47 view .LVU110
 372 003a F4EEC77A 		vcmpe.f32	s15, s14
 373 003e F1EE10FA 		vmrs	APSR_nzcv, FPSCR
 374 0042 E1DD     		ble	.L26
 375              		.loc 1 99 47 view .LVU111
 376 0044 F0EE477A 		vmov.f32	s15, s14
 377 0048 DEE7     		b	.L26
 378              	.L25:
 379              		.loc 1 99 47 view .LVU112
 380              	.LBE4:
  95:Core/Src/control/fuzzy_pid.cpp **** 	for (int i = 0; i < 7; i++)
 381              		.loc 1 95 2 is_stmt 1 discriminator 2 view .LVU113
 382 004a 0132     		adds	r2, r2, #1
 383              	.LVL28:
 384              	.L29:
  95:Core/Src/control/fuzzy_pid.cpp **** 	for (int i = 0; i < 7; i++)
 385              		.loc 1 95 20 discriminator 1 view .LVU114
 386 004c 062A     		cmp	r2, #6
 387 004e 02DC     		bgt	.L35
 388              	.LBB5:
  97:Core/Src/control/fuzzy_pid.cpp **** 		{
 389              		.loc 1 97 12 is_stmt 0 view .LVU115
 390 0050 4FF0000C 		mov	ip, #0
 391 0054 E2E7     		b	.L28
 392              	.L35:
 393              	.LBE5:
 394              	.LBE3:
 395              	.LBB6:
 100:Core/Src/control/fuzzy_pid.cpp **** 		}
 101:Core/Src/control/fuzzy_pid.cpp **** 	}
 102:Core/Src/control/fuzzy_pid.cpp **** 	for (int i = 0; i < 7; i++)
 396              		.loc 1 102 11 view .LVU116
 397 0056 0024     		movs	r4, #0
 398 0058 19E0     		b	.L24
 399              	.LVL29:
 400              	.L32:
 401              	.LBB7:
 103:Core/Src/control/fuzzy_pid.cpp **** 	{
ARM GAS  /tmp/ccDfZCfa.s 			page 10


 104:Core/Src/control/fuzzy_pid.cpp **** 		for (int j = 0; j < 7; j++)
 402              		.loc 1 104 3 is_stmt 1 discriminator 2 view .LVU117
 403 005a 0132     		adds	r2, r2, #1
 404              	.LVL30:
 405              	.L34:
 406              		.loc 1 104 21 discriminator 1 view .LVU118
 407 005c 062A     		cmp	r2, #6
 408 005e 15DC     		bgt	.L31
 105:Core/Src/control/fuzzy_pid.cpp **** 		{
 106:Core/Src/control/fuzzy_pid.cpp **** 			if( maxIndex[i][j]>maxValue)
 409              		.loc 1 106 4 view .LVU119
 410              		.loc 1 106 21 is_stmt 0 view .LVU120
 411 0060 C4EBC403 		rsb	r3, r4, r4, lsl #3
 412 0064 1344     		add	r3, r3, r2
 413 0066 0E33     		adds	r3, r3, #14
 414 0068 00EB8303 		add	r3, r0, r3, lsl #2
 415 006c D3ED017A 		vldr.32	s15, [r3, #4]
 416              		.loc 1 106 23 view .LVU121
 417 0070 90ED0E7A 		vldr.32	s14, [r0, #56]
 418              		.loc 1 106 4 view .LVU122
 419 0074 F4EEC77A 		vcmpe.f32	s15, s14
 420 0078 F1EE10FA 		vmrs	APSR_nzcv, FPSCR
 421 007c EDDD     		ble	.L32
 107:Core/Src/control/fuzzy_pid.cpp **** 			  {
 108:Core/Src/control/fuzzy_pid.cpp **** 				maxValue=maxIndex[i][j];
 422              		.loc 1 108 5 is_stmt 1 view .LVU123
 423              		.loc 1 108 13 is_stmt 0 view .LVU124
 424 007e C0ED0E7A 		vstr.32	s15, [r0, #56]
 109:Core/Src/control/fuzzy_pid.cpp **** 				maxRow=i;
 425              		.loc 1 109 5 is_stmt 1 view .LVU125
 426              		.loc 1 109 11 is_stmt 0 view .LVU126
 427 0082 C0F83841 		str	r4, [r0, #312]
 110:Core/Src/control/fuzzy_pid.cpp **** 				maxColumn=j;
 428              		.loc 1 110 5 is_stmt 1 view .LVU127
 429              		.loc 1 110 14 is_stmt 0 view .LVU128
 430 0086 C0F83C21 		str	r2, [r0, #316]
 431 008a E6E7     		b	.L32
 432              	.L31:
 433              		.loc 1 110 14 view .LVU129
 434              	.LBE7:
 102:Core/Src/control/fuzzy_pid.cpp **** 	{
 435              		.loc 1 102 2 is_stmt 1 discriminator 2 view .LVU130
 436 008c 0134     		adds	r4, r4, #1
 437              	.LVL31:
 438              	.L24:
 102:Core/Src/control/fuzzy_pid.cpp **** 	{
 439              		.loc 1 102 20 discriminator 1 view .LVU131
 440 008e 062C     		cmp	r4, #6
 441 0090 01DC     		bgt	.L30
 442              	.LBB8:
 104:Core/Src/control/fuzzy_pid.cpp **** 		{
 443              		.loc 1 104 12 is_stmt 0 view .LVU132
 444 0092 0022     		movs	r2, #0
 445 0094 E2E7     		b	.L34
 446              	.L30:
 447              	.LBE8:
 448              	.LBE6:
ARM GAS  /tmp/ccDfZCfa.s 			page 11


 111:Core/Src/control/fuzzy_pid.cpp **** 			  }
 112:Core/Src/control/fuzzy_pid.cpp **** 		}
 113:Core/Src/control/fuzzy_pid.cpp **** 	}
 114:Core/Src/control/fuzzy_pid.cpp **** 	float k=invTrimf(maxValue,mf[rules[maxRow][maxColumn] * 3], mf[rules[maxRow][maxColumn] * 3 + 1], 
 449              		.loc 1 114 2 is_stmt 1 view .LVU133
 450              		.loc 1 114 37 is_stmt 0 view .LVU134
 451 0096 D0F83831 		ldr	r3, [r0, #312]
 452              		.loc 1 114 43 view .LVU135
 453 009a C3EBC303 		rsb	r3, r3, r3, lsl #3
 454 009e 01EB8303 		add	r3, r1, r3, lsl #2
 455              		.loc 1 114 45 view .LVU136
 456 00a2 D0F83C21 		ldr	r2, [r0, #316]
 457              		.loc 1 114 54 view .LVU137
 458 00a6 53F82230 		ldr	r3, [r3, r2, lsl #2]
 459              		.loc 1 114 59 view .LVU138
 460 00aa 03EB4303 		add	r3, r3, r3, lsl #1
 461 00ae 9A00     		lsls	r2, r3, #2
 462 00b0 0EEB8303 		add	r3, lr, r3, lsl #2
 463              		.loc 1 114 97 view .LVU139
 464 00b4 111D     		adds	r1, r2, #4
 465              	.LVL32:
 466              		.loc 1 114 97 view .LVU140
 467 00b6 7144     		add	r1, r1, lr
 468              		.loc 1 114 135 view .LVU141
 469 00b8 0832     		adds	r2, r2, #8
 470 00ba 9644     		add	lr, lr, r2
 471              	.LVL33:
 472              		.loc 1 114 18 view .LVU142
 473 00bc DEED001A 		vldr.32	s3, [lr]
 474 00c0 91ED001A 		vldr.32	s2, [r1]
 475 00c4 D3ED000A 		vldr.32	s1, [r3]
 476 00c8 90ED0E0A 		vldr.32	s0, [r0, #56]
 477 00cc FFF7FEFF 		bl	_ZN9fuzzy_pid8invTrimfEffff
 478              	.LVL34:
 115:Core/Src/control/fuzzy_pid.cpp **** 	return k;
 479              		.loc 1 115 2 is_stmt 1 view .LVU143
 116:Core/Src/control/fuzzy_pid.cpp **** }
 480              		.loc 1 116 1 is_stmt 0 view .LVU144
 481 00d0 10BD     		pop	{r4, pc}
 482              		.loc 1 116 1 view .LVU145
 483              		.cfi_endproc
 484              	.LFE1650:
 486              		.section	.text._ZN9fuzzy_pid3mapEfff,"ax",%progbits
 487              		.align	1
 488              		.global	_ZN9fuzzy_pid3mapEfff
 489              		.syntax unified
 490              		.thumb
 491              		.thumb_func
 492              		.fpu fpv4-sp-d16
 494              	_ZN9fuzzy_pid3mapEfff:
 495              	.LVL35:
 496              	.LFB1651:
 117:Core/Src/control/fuzzy_pid.cpp **** float fuzzy_pid::map(float x, float input, float output)
 118:Core/Src/control/fuzzy_pid.cpp **** {
 497              		.loc 1 118 1 is_stmt 1 view -0
 498              		.cfi_startproc
 499              		@ args = 0, pretend = 0, frame = 0
ARM GAS  /tmp/ccDfZCfa.s 			page 12


 500              		@ frame_needed = 0, uses_anonymous_args = 0
 501              		@ link register save eliminated.
 119:Core/Src/control/fuzzy_pid.cpp **** 	return (x *output ) / input;
 502              		.loc 1 119 2 view .LVU147
 503              		.loc 1 119 12 is_stmt 0 view .LVU148
 504 0000 20EE010A 		vmul.f32	s0, s0, s2
 505              	.LVL36:
 120:Core/Src/control/fuzzy_pid.cpp **** }
 506              		.loc 1 120 1 view .LVU149
 507 0004 80EE200A 		vdiv.f32	s0, s0, s1
 508 0008 7047     		bx	lr
 509              		.cfi_endproc
 510              	.LFE1651:
 512              		.section	.text._ZN9fuzzy_pid5clampEfff,"ax",%progbits
 513              		.align	1
 514              		.global	_ZN9fuzzy_pid5clampEfff
 515              		.syntax unified
 516              		.thumb
 517              		.thumb_func
 518              		.fpu fpv4-sp-d16
 520              	_ZN9fuzzy_pid5clampEfff:
 521              	.LVL37:
 522              	.LFB1652:
 121:Core/Src/control/fuzzy_pid.cpp **** float fuzzy_pid::clamp(float x,float outmin,float outmax)
 122:Core/Src/control/fuzzy_pid.cpp **** {
 523              		.loc 1 122 1 is_stmt 1 view -0
 524              		.cfi_startproc
 525              		@ args = 0, pretend = 0, frame = 0
 526              		@ frame_needed = 0, uses_anonymous_args = 0
 527              		@ link register save eliminated.
 123:Core/Src/control/fuzzy_pid.cpp **** 	if (x > outmax) return outmax;
 528              		.loc 1 123 2 view .LVU151
 529 0000 B4EEC10A 		vcmpe.f32	s0, s2
 530 0004 F1EE10FA 		vmrs	APSR_nzcv, FPSCR
 531 0008 07DC     		bgt	.L43
 124:Core/Src/control/fuzzy_pid.cpp **** 	else if (x < outmin) return outmin;
 532              		.loc 1 124 7 view .LVU152
 533 000a B4EEE00A 		vcmpe.f32	s0, s1
 534 000e F1EE10FA 		vmrs	APSR_nzcv, FPSCR
 535 0012 04D5     		bpl	.L40
 536              		.loc 1 124 30 is_stmt 0 view .LVU153
 537 0014 B0EE600A 		vmov.f32	s0, s1
 538              	.LVL38:
 539              		.loc 1 124 30 view .LVU154
 540 0018 7047     		bx	lr
 541              	.LVL39:
 542              	.L43:
 123:Core/Src/control/fuzzy_pid.cpp **** 	if (x > outmax) return outmax;
 543              		.loc 1 123 25 view .LVU155
 544 001a B0EE410A 		vmov.f32	s0, s2
 545              	.LVL40:
 546              	.L40:
 125:Core/Src/control/fuzzy_pid.cpp **** 	else return x;
 126:Core/Src/control/fuzzy_pid.cpp **** }
 547              		.loc 1 126 1 view .LVU156
 548 001e 7047     		bx	lr
 549              		.cfi_endproc
ARM GAS  /tmp/ccDfZCfa.s 			page 13


 550              	.LFE1652:
 552              		.section	.text._ZN9fuzzy_pid28compute_fuzzy_selfTuning_PIDEff,"ax",%progbits
 553              		.align	1
 554              		.global	_ZN9fuzzy_pid28compute_fuzzy_selfTuning_PIDEff
 555              		.syntax unified
 556              		.thumb
 557              		.thumb_func
 558              		.fpu fpv4-sp-d16
 560              	_ZN9fuzzy_pid28compute_fuzzy_selfTuning_PIDEff:
 561              	.LVL41:
 562              	.LFB1653:
 127:Core/Src/control/fuzzy_pid.cpp **** float fuzzy_pid::compute_fuzzy_selfTuning_PID(float setpoint, float input)
 128:Core/Src/control/fuzzy_pid.cpp **** {
 563              		.loc 1 128 1 is_stmt 1 view -0
 564              		.cfi_startproc
 565              		@ args = 0, pretend = 0, frame = 0
 566              		@ frame_needed = 0, uses_anonymous_args = 0
 567              		.loc 1 128 1 is_stmt 0 view .LVU158
 568 0000 2DE9F041 		push	{r4, r5, r6, r7, r8, lr}
 569              	.LCFI2:
 570              		.cfi_def_cfa_offset 24
 571              		.cfi_offset 4, -24
 572              		.cfi_offset 5, -20
 573              		.cfi_offset 6, -16
 574              		.cfi_offset 7, -12
 575              		.cfi_offset 8, -8
 576              		.cfi_offset 14, -4
 577 0004 2DED048B 		vpush.64	{d8, d9}
 578              	.LCFI3:
 579              		.cfi_def_cfa_offset 40
 580              		.cfi_offset 80, -40
 581              		.cfi_offset 81, -36
 582              		.cfi_offset 82, -32
 583              		.cfi_offset 83, -28
 584 0008 0446     		mov	r4, r0
 585 000a F0EE608A 		vmov.f32	s17, s1
 129:Core/Src/control/fuzzy_pid.cpp **** 	setpoint=map(setpoint,50,1);
 586              		.loc 1 129 2 is_stmt 1 view .LVU159
 587              		.loc 1 129 14 is_stmt 0 view .LVU160
 588 000e 9FED569A 		vldr.32	s18, .L64
 589 0012 B7EE001A 		vmov.f32	s2, #1.0e+0
 590 0016 F0EE490A 		vmov.f32	s1, s18
 591              	.LVL42:
 592              		.loc 1 129 14 view .LVU161
 593 001a FFF7FEFF 		bl	_ZN9fuzzy_pid3mapEfff
 594              	.LVL43:
 595              		.loc 1 129 14 view .LVU162
 596 001e B0EE408A 		vmov.f32	s16, s0
 597              	.LVL44:
 130:Core/Src/control/fuzzy_pid.cpp **** 	input=map(input,50,1);
 598              		.loc 1 130 2 is_stmt 1 view .LVU163
 599              		.loc 1 130 11 is_stmt 0 view .LVU164
 600 0022 B7EE001A 		vmov.f32	s2, #1.0e+0
 601 0026 F0EE490A 		vmov.f32	s1, s18
 602 002a B0EE680A 		vmov.f32	s0, s17
 603              	.LVL45:
 604              		.loc 1 130 11 view .LVU165
ARM GAS  /tmp/ccDfZCfa.s 			page 14


 605 002e 2046     		mov	r0, r4
 606 0030 FFF7FEFF 		bl	_ZN9fuzzy_pid3mapEfff
 607              	.LVL46:
 131:Core/Src/control/fuzzy_pid.cpp **** 	error=setpoint-input;
 608              		.loc 1 131 2 is_stmt 1 view .LVU166
 609              		.loc 1 131 16 is_stmt 0 view .LVU167
 610 0034 38EE408A 		vsub.f32	s16, s16, s0
 611              	.LVL47:
 612              		.loc 1 131 7 view .LVU168
 613 0038 84ED028A 		vstr.32	s16, [r4, #8]
 132:Core/Src/control/fuzzy_pid.cpp **** 	d_error = (error - error_l);
 614              		.loc 1 132 2 is_stmt 1 view .LVU169
 615              		.loc 1 132 21 is_stmt 0 view .LVU170
 616 003c D4ED048A 		vldr.32	s17, [r4, #16]
 617              		.loc 1 132 19 view .LVU171
 618 0040 78EE688A 		vsub.f32	s17, s16, s17
 619              		.loc 1 132 10 view .LVU172
 620 0044 C4ED038A 		vstr.32	s17, [r4, #12]
 133:Core/Src/control/fuzzy_pid.cpp **** 	for (int i = 0; i < no_of_fuzzy_sets; i++)
 621              		.loc 1 133 2 is_stmt 1 view .LVU173
 622              	.LVL48:
 623              	.LBB9:
 624              		.loc 1 133 11 is_stmt 0 view .LVU174
 625 0048 0025     		movs	r5, #0
 626 004a 35E0     		b	.L49
 627              	.LVL49:
 628              	.L60:
 134:Core/Src/control/fuzzy_pid.cpp **** 	{
 135:Core/Src/control/fuzzy_pid.cpp **** 		e_sets[i] = trimf(error, e_mf[i * 3], e_mf[i * 3 + 1], e_mf[i * 3 + 2]);
 629              		.loc 1 135 3 is_stmt 1 discriminator 2 view .LVU175
 630              		.loc 1 135 35 is_stmt 0 discriminator 2 view .LVU176
 631 004c 05EB4500 		add	r0, r5, r5, lsl #1
 632              		.loc 1 135 52 discriminator 2 view .LVU177
 633 0050 421C     		adds	r2, r0, #1
 634              		.loc 1 135 69 discriminator 2 view .LVU178
 635 0052 811C     		adds	r1, r0, #2
 636              		.loc 1 135 20 discriminator 2 view .LVU179
 637 0054 454B     		ldr	r3, .L64+4
 638 0056 8F00     		lsls	r7, r1, #2
 639 0058 03EB8101 		add	r1, r3, r1, lsl #2
 640 005c 9600     		lsls	r6, r2, #2
 641 005e 03EB8202 		add	r2, r3, r2, lsl #2
 642 0062 4FEA8008 		lsl	r8, r0, #2
 643 0066 03EB8003 		add	r3, r3, r0, lsl #2
 644 006a D1ED001A 		vldr.32	s3, [r1]
 645 006e 92ED001A 		vldr.32	s2, [r2]
 646 0072 D3ED000A 		vldr.32	s1, [r3]
 647 0076 B0EE480A 		vmov.f32	s0, s16
 648 007a 2046     		mov	r0, r4
 649 007c FFF7FEFF 		bl	_ZN9fuzzy_pid5trimfEffff
 650              	.LVL50:
 651              		.loc 1 135 13 discriminator 2 view .LVU180
 652 0080 05F14003 		add	r3, r5, #64
 653 0084 04EB8303 		add	r3, r4, r3, lsl #2
 654 0088 83ED000A 		vstr.32	s0, [r3]
 136:Core/Src/control/fuzzy_pid.cpp **** 		de_sets[i] = trimf(d_error, de_mf[i * 3], de_mf[i * 3 + 1], de_mf[i * 3 + 2]); 
 655              		.loc 1 136 3 is_stmt 1 discriminator 2 view .LVU181
ARM GAS  /tmp/ccDfZCfa.s 			page 15


 656              		.loc 1 136 21 is_stmt 0 discriminator 2 view .LVU182
 657 008c 384B     		ldr	r3, .L64+8
 658 008e 1F44     		add	r7, r7, r3
 659 0090 1E44     		add	r6, r6, r3
 660 0092 4344     		add	r3, r3, r8
 661 0094 D7ED001A 		vldr.32	s3, [r7]
 662 0098 96ED001A 		vldr.32	s2, [r6]
 663 009c D3ED000A 		vldr.32	s1, [r3]
 664 00a0 B0EE680A 		vmov.f32	s0, s17
 665 00a4 2046     		mov	r0, r4
 666 00a6 FFF7FEFF 		bl	_ZN9fuzzy_pid5trimfEffff
 667              	.LVL51:
 668              		.loc 1 136 14 discriminator 2 view .LVU183
 669 00aa 05F14603 		add	r3, r5, #70
 670 00ae 04EB8303 		add	r3, r4, r3, lsl #2
 671 00b2 83ED010A 		vstr.32	s0, [r3, #4]
 133:Core/Src/control/fuzzy_pid.cpp **** 	for (int i = 0; i < no_of_fuzzy_sets; i++)
 672              		.loc 1 133 2 is_stmt 1 discriminator 2 view .LVU184
 673 00b6 0135     		adds	r5, r5, #1
 674              	.LVL52:
 675              	.L49:
 133:Core/Src/control/fuzzy_pid.cpp **** 	for (int i = 0; i < no_of_fuzzy_sets; i++)
 676              		.loc 1 133 20 discriminator 3 view .LVU185
 677 00b8 062D     		cmp	r5, #6
 678 00ba C7DD     		ble	.L60
 679              	.LBE9:
 137:Core/Src/control/fuzzy_pid.cpp **** 	}
 138:Core/Src/control/fuzzy_pid.cpp **** 	kp += calculate_del_tuningGain(kp_rules,Kp_mf);
 680              		.loc 1 138 2 view .LVU186
 681              		.loc 1 138 32 is_stmt 0 view .LVU187
 682 00bc 2D4A     		ldr	r2, .L64+12
 683 00be 2E49     		ldr	r1, .L64+16
 684 00c0 2046     		mov	r0, r4
 685 00c2 FFF7FEFF 		bl	_ZN9fuzzy_pid24calculate_del_tuningGainEPA7_iPf
 686              	.LVL53:
 687              		.loc 1 138 5 view .LVU188
 688 00c6 D4ED087A 		vldr.32	s15, [r4, #32]
 689 00ca 30EE270A 		vadd.f32	s0, s0, s15
 690 00ce 84ED080A 		vstr.32	s0, [r4, #32]
 139:Core/Src/control/fuzzy_pid.cpp **** 	if (kp < 0) kp = 0;
 691              		.loc 1 139 2 is_stmt 1 view .LVU189
 692 00d2 B5EEC00A 		vcmpe.f32	s0, #0
 693 00d6 F1EE10FA 		vmrs	APSR_nzcv, FPSCR
 694 00da 3BD4     		bmi	.L61
 695              	.L50:
 140:Core/Src/control/fuzzy_pid.cpp **** 	ki += calculate_del_tuningGain(ki_rules,Ki_mf);
 696              		.loc 1 140 2 view .LVU190
 697              		.loc 1 140 32 is_stmt 0 view .LVU191
 698 00dc 274A     		ldr	r2, .L64+20
 699 00de 2849     		ldr	r1, .L64+24
 700 00e0 2046     		mov	r0, r4
 701 00e2 FFF7FEFF 		bl	_ZN9fuzzy_pid24calculate_del_tuningGainEPA7_iPf
 702              	.LVL54:
 703              		.loc 1 140 5 view .LVU192
 704 00e6 D4ED097A 		vldr.32	s15, [r4, #36]
 705 00ea 30EE270A 		vadd.f32	s0, s0, s15
 706 00ee 84ED090A 		vstr.32	s0, [r4, #36]
ARM GAS  /tmp/ccDfZCfa.s 			page 16


 141:Core/Src/control/fuzzy_pid.cpp **** 	if (ki < 0) ki = 0;
 707              		.loc 1 141 2 is_stmt 1 view .LVU193
 708 00f2 B5EEC00A 		vcmpe.f32	s0, #0
 709 00f6 F1EE10FA 		vmrs	APSR_nzcv, FPSCR
 710 00fa 2ED4     		bmi	.L62
 711              	.L52:
 142:Core/Src/control/fuzzy_pid.cpp **** 	kd += calculate_del_tuningGain(kd_rules,Kd_mf);
 712              		.loc 1 142 2 view .LVU194
 713              		.loc 1 142 32 is_stmt 0 view .LVU195
 714 00fc 214A     		ldr	r2, .L64+28
 715 00fe 2249     		ldr	r1, .L64+32
 716 0100 2046     		mov	r0, r4
 717 0102 FFF7FEFF 		bl	_ZN9fuzzy_pid24calculate_del_tuningGainEPA7_iPf
 718              	.LVL55:
 719              		.loc 1 142 5 view .LVU196
 720 0106 D4ED0A7A 		vldr.32	s15, [r4, #40]
 721 010a 30EE270A 		vadd.f32	s0, s0, s15
 722 010e 84ED0A0A 		vstr.32	s0, [r4, #40]
 143:Core/Src/control/fuzzy_pid.cpp **** 	if (kd < 0) kd = 0;
 723              		.loc 1 143 2 is_stmt 1 view .LVU197
 724 0112 B5EEC00A 		vcmpe.f32	s0, #0
 725 0116 F1EE10FA 		vmrs	APSR_nzcv, FPSCR
 726 011a 21D4     		bmi	.L63
 727              	.L54:
 144:Core/Src/control/fuzzy_pid.cpp **** 	//printf("%f  %f  %f\n",kp,ki,kd);
 145:Core/Src/control/fuzzy_pid.cpp **** 	calculate_del_output(this->kp, this->ki, this->kd);
 728              		.loc 1 145 2 view .LVU198
 729              		.loc 1 145 22 is_stmt 0 view .LVU199
 730 011c 94ED0A1A 		vldr.32	s2, [r4, #40]
 731 0120 D4ED090A 		vldr.32	s1, [r4, #36]
 732 0124 94ED080A 		vldr.32	s0, [r4, #32]
 733 0128 2046     		mov	r0, r4
 734 012a FFF7FEFF 		bl	_ZN9fuzzy_pid20calculate_del_outputEfff
 735              	.LVL56:
 146:Core/Src/control/fuzzy_pid.cpp **** 	error_ll = error_l;
 736              		.loc 1 146 2 is_stmt 1 view .LVU200
 737              		.loc 1 146 13 is_stmt 0 view .LVU201
 738 012e 2369     		ldr	r3, [r4, #16]	@ float
 739              		.loc 1 146 11 view .LVU202
 740 0130 6361     		str	r3, [r4, #20]	@ float
 147:Core/Src/control/fuzzy_pid.cpp **** 	error_l = error;
 741              		.loc 1 147 2 is_stmt 1 view .LVU203
 742              		.loc 1 147 12 is_stmt 0 view .LVU204
 743 0132 A368     		ldr	r3, [r4, #8]	@ float
 744              		.loc 1 147 10 view .LVU205
 745 0134 2361     		str	r3, [r4, #16]	@ float
 148:Core/Src/control/fuzzy_pid.cpp **** 	output=clamp(output,outMin,outMax);
 746              		.loc 1 148 2 is_stmt 1 view .LVU206
 747              		.loc 1 148 14 is_stmt 0 view .LVU207
 748 0136 94ED001A 		vldr.32	s2, [r4]
 749 013a D4ED010A 		vldr.32	s1, [r4, #4]
 750 013e 94ED070A 		vldr.32	s0, [r4, #28]
 751 0142 2046     		mov	r0, r4
 752 0144 FFF7FEFF 		bl	_ZN9fuzzy_pid5clampEfff
 753              	.LVL57:
 754              		.loc 1 148 8 view .LVU208
 755 0148 84ED070A 		vstr.32	s0, [r4, #28]
ARM GAS  /tmp/ccDfZCfa.s 			page 17


 149:Core/Src/control/fuzzy_pid.cpp **** 	return output;
 756              		.loc 1 149 2 is_stmt 1 view .LVU209
 150:Core/Src/control/fuzzy_pid.cpp **** }
 757              		.loc 1 150 1 is_stmt 0 view .LVU210
 758 014c BDEC048B 		vldm	sp!, {d8-d9}
 759              	.LCFI4:
 760              		.cfi_remember_state
 761              		.cfi_restore 82
 762              		.cfi_restore 83
 763              		.cfi_restore 80
 764              		.cfi_restore 81
 765              		.cfi_def_cfa_offset 24
 766 0150 BDE8F081 		pop	{r4, r5, r6, r7, r8, pc}
 767              	.LVL58:
 768              	.L61:
 769              	.LCFI5:
 770              		.cfi_restore_state
 139:Core/Src/control/fuzzy_pid.cpp **** 	ki += calculate_del_tuningGain(ki_rules,Ki_mf);
 771              		.loc 1 139 14 is_stmt 1 discriminator 1 view .LVU211
 139:Core/Src/control/fuzzy_pid.cpp **** 	ki += calculate_del_tuningGain(ki_rules,Ki_mf);
 772              		.loc 1 139 17 is_stmt 0 discriminator 1 view .LVU212
 773 0154 0023     		movs	r3, #0
 774 0156 2362     		str	r3, [r4, #32]	@ float
 775 0158 C0E7     		b	.L50
 776              	.L62:
 141:Core/Src/control/fuzzy_pid.cpp **** 	kd += calculate_del_tuningGain(kd_rules,Kd_mf);
 777              		.loc 1 141 14 is_stmt 1 discriminator 1 view .LVU213
 141:Core/Src/control/fuzzy_pid.cpp **** 	kd += calculate_del_tuningGain(kd_rules,Kd_mf);
 778              		.loc 1 141 17 is_stmt 0 discriminator 1 view .LVU214
 779 015a 0023     		movs	r3, #0
 780 015c 6362     		str	r3, [r4, #36]	@ float
 781 015e CDE7     		b	.L52
 782              	.L63:
 143:Core/Src/control/fuzzy_pid.cpp **** 	//printf("%f  %f  %f\n",kp,ki,kd);
 783              		.loc 1 143 14 is_stmt 1 discriminator 1 view .LVU215
 143:Core/Src/control/fuzzy_pid.cpp **** 	//printf("%f  %f  %f\n",kp,ki,kd);
 784              		.loc 1 143 17 is_stmt 0 discriminator 1 view .LVU216
 785 0160 0023     		movs	r3, #0
 786 0162 A362     		str	r3, [r4, #40]	@ float
 787 0164 DAE7     		b	.L54
 788              	.L65:
 789 0166 00BF     		.align	2
 790              	.L64:
 791 0168 00004842 		.word	1112014848
 792 016c 00000000 		.word	.LANCHOR0
 793 0170 00000000 		.word	.LANCHOR1
 794 0174 00000000 		.word	.LANCHOR2
 795 0178 00000000 		.word	.LANCHOR3
 796 017c 00000000 		.word	.LANCHOR4
 797 0180 00000000 		.word	.LANCHOR5
 798 0184 00000000 		.word	.LANCHOR6
 799 0188 00000000 		.word	.LANCHOR7
 800              		.cfi_endproc
 801              	.LFE1653:
 803              		.global	Kd_mf
 804              		.global	Ki_mf
 805              		.global	Kp_mf
ARM GAS  /tmp/ccDfZCfa.s 			page 18


 806              		.global	de_mf
 807              		.global	e_mf
 808              		.global	kd_rules
 809              		.global	ki_rules
 810              		.global	kp_rules
 811              		.section	.data.Kd_mf,"aw"
 812              		.align	2
 813              		.set	.LANCHOR6,. + 0
 816              	Kd_mf:
 817 0000 8FC2F5BC 		.word	-1124744561
 818 0004 8FC2F5BC 		.word	-1124744561
 819 0008 0AD7A3BC 		.word	-1130113270
 820 000c 8FC2F5BC 		.word	-1124744561
 821 0010 0AD7A3BC 		.word	-1130113270
 822 0014 00000000 		.word	0
 823 0018 8FC2F5BC 		.word	-1124744561
 824 001c 0AD723BC 		.word	-1138501878
 825 0020 0AD7233C 		.word	1008981770
 826 0024 0AD7A3BC 		.word	-1130113270
 827 0028 00000000 		.word	0
 828 002c 0AD7A33C 		.word	1017370378
 829 0030 0AD723BC 		.word	-1138501878
 830 0034 0AD7233C 		.word	1008981770
 831 0038 8FC2F53C 		.word	1022739087
 832 003c 00000000 		.word	0
 833 0040 0AD7A33C 		.word	1017370378
 834 0044 8FC2F53C 		.word	1022739087
 835 0048 0AD7233C 		.word	1008981770
 836 004c 8FC2F53C 		.word	1022739087
 837 0050 8FC2F53C 		.word	1022739087
 838              		.section	.data.Ki_mf,"aw"
 839              		.align	2
 840              		.set	.LANCHOR4,. + 0
 843              	Ki_mf:
 844 0000 8FC2F5BC 		.word	-1124744561
 845 0004 8FC2F5BC 		.word	-1124744561
 846 0008 0AD7A3BC 		.word	-1130113270
 847 000c 8FC2F5BC 		.word	-1124744561
 848 0010 0AD7A3BC 		.word	-1130113270
 849 0014 00000000 		.word	0
 850 0018 8FC2F5BC 		.word	-1124744561
 851 001c 0AD723BC 		.word	-1138501878
 852 0020 0AD7233C 		.word	1008981770
 853 0024 0AD7A3BC 		.word	-1130113270
 854 0028 00000000 		.word	0
 855 002c 0AD7A33C 		.word	1017370378
 856 0030 0AD723BC 		.word	-1138501878
 857 0034 0AD7233C 		.word	1008981770
 858 0038 8FC2F53C 		.word	1022739087
 859 003c 00000000 		.word	0
 860 0040 0AD7A33C 		.word	1017370378
 861 0044 8FC2F53C 		.word	1022739087
 862 0048 0AD7233C 		.word	1008981770
 863 004c 8FC2F53C 		.word	1022739087
 864 0050 8FC2F53C 		.word	1022739087
 865              		.section	.data.Kp_mf,"aw"
 866              		.align	2
ARM GAS  /tmp/ccDfZCfa.s 			page 19


 867              		.set	.LANCHOR2,. + 0
 870              	Kp_mf:
 871 0000 8FC2F5BC 		.word	-1124744561
 872 0004 8FC2F5BC 		.word	-1124744561
 873 0008 0AD7A3BC 		.word	-1130113270
 874 000c 8FC2F5BC 		.word	-1124744561
 875 0010 0AD7A3BC 		.word	-1130113270
 876 0014 00000000 		.word	0
 877 0018 8FC2F5BC 		.word	-1124744561
 878 001c 0AD723BC 		.word	-1138501878
 879 0020 0AD7233C 		.word	1008981770
 880 0024 0AD7A3BC 		.word	-1130113270
 881 0028 00000000 		.word	0
 882 002c 0AD7A33C 		.word	1017370378
 883 0030 0AD723BC 		.word	-1138501878
 884 0034 0AD7233C 		.word	1008981770
 885 0038 8FC2F53C 		.word	1022739087
 886 003c 00000000 		.word	0
 887 0040 0AD7A33C 		.word	1017370378
 888 0044 8FC2F53C 		.word	1022739087
 889 0048 0AD7233C 		.word	1008981770
 890 004c 8FC2F53C 		.word	1022739087
 891 0050 8FC2F53C 		.word	1022739087
 892              		.section	.data.de_mf,"aw"
 893              		.align	2
 894              		.set	.LANCHOR1,. + 0
 897              	de_mf:
 898 0000 000040C0 		.word	-1069547520
 899 0004 000040C0 		.word	-1069547520
 900 0008 000000C0 		.word	-1073741824
 901 000c 000040C0 		.word	-1069547520
 902 0010 000000C0 		.word	-1073741824
 903 0014 00000000 		.word	0
 904 0018 000040C0 		.word	-1069547520
 905 001c 000080BF 		.word	-1082130432
 906 0020 0000803F 		.word	1065353216
 907 0024 000000C0 		.word	-1073741824
 908 0028 00000000 		.word	0
 909 002c 00000040 		.word	1073741824
 910 0030 000080BF 		.word	-1082130432
 911 0034 0000803F 		.word	1065353216
 912 0038 00004040 		.word	1077936128
 913 003c 00000000 		.word	0
 914 0040 00000040 		.word	1073741824
 915 0044 00004040 		.word	1077936128
 916 0048 0000803F 		.word	1065353216
 917 004c 00004040 		.word	1077936128
 918 0050 00004040 		.word	1077936128
 919              		.section	.data.e_mf,"aw"
 920              		.align	2
 921              		.set	.LANCHOR0,. + 0
 924              	e_mf:
 925 0000 000040C0 		.word	-1069547520
 926 0004 000040C0 		.word	-1069547520
 927 0008 000000C0 		.word	-1073741824
 928 000c 000040C0 		.word	-1069547520
 929 0010 000000C0 		.word	-1073741824
ARM GAS  /tmp/ccDfZCfa.s 			page 20


 930 0014 00000000 		.word	0
 931 0018 000040C0 		.word	-1069547520
 932 001c 000080BF 		.word	-1082130432
 933 0020 0000803F 		.word	1065353216
 934 0024 000000C0 		.word	-1073741824
 935 0028 00000000 		.word	0
 936 002c 00000040 		.word	1073741824
 937 0030 000080BF 		.word	-1082130432
 938 0034 0000803F 		.word	1065353216
 939 0038 00004040 		.word	1077936128
 940 003c 00000000 		.word	0
 941 0040 00000040 		.word	1073741824
 942 0044 00004040 		.word	1077936128
 943 0048 0000803F 		.word	1065353216
 944 004c 00004040 		.word	1077936128
 945 0050 00004040 		.word	1077936128
 946              		.section	.data.kd_rules,"aw"
 947              		.align	2
 948              		.set	.LANCHOR7,. + 0
 951              	kd_rules:
 952 0000 04000000 		.word	4
 953 0004 02000000 		.word	2
 954 0008 00000000 		.word	0
 955 000c 00000000 		.word	0
 956 0010 00000000 		.word	0
 957 0014 01000000 		.word	1
 958 0018 04000000 		.word	4
 959 001c 04000000 		.word	4
 960 0020 02000000 		.word	2
 961 0024 00000000 		.word	0
 962 0028 01000000 		.word	1
 963 002c 01000000 		.word	1
 964 0030 02000000 		.word	2
 965 0034 03000000 		.word	3
 966 0038 03000000 		.word	3
 967 003c 02000000 		.word	2
 968 0040 01000000 		.word	1
 969 0044 01000000 		.word	1
 970 0048 02000000 		.word	2
 971 004c 02000000 		.word	2
 972 0050 03000000 		.word	3
 973 0054 03000000 		.word	3
 974 0058 02000000 		.word	2
 975 005c 02000000 		.word	2
 976 0060 02000000 		.word	2
 977 0064 02000000 		.word	2
 978 0068 02000000 		.word	2
 979 006c 03000000 		.word	3
 980 0070 03000000 		.word	3
 981 0074 03000000 		.word	3
 982 0078 03000000 		.word	3
 983 007c 03000000 		.word	3
 984 0080 03000000 		.word	3
 985 0084 03000000 		.word	3
 986 0088 03000000 		.word	3
 987 008c 06000000 		.word	6
 988 0090 02000000 		.word	2
ARM GAS  /tmp/ccDfZCfa.s 			page 21


 989 0094 04000000 		.word	4
 990 0098 04000000 		.word	4
 991 009c 04000000 		.word	4
 992 00a0 04000000 		.word	4
 993 00a4 06000000 		.word	6
 994 00a8 06000000 		.word	6
 995 00ac 05000000 		.word	5
 996 00b0 05000000 		.word	5
 997 00b4 05000000 		.word	5
 998 00b8 04000000 		.word	4
 999 00bc 04000000 		.word	4
 1000 00c0 06000000 		.word	6
 1001              		.section	.data.ki_rules,"aw"
 1002              		.align	2
 1003              		.set	.LANCHOR5,. + 0
 1006              	ki_rules:
 1007 0000 00000000 		.word	0
 1008 0004 00000000 		.word	0
 1009 0008 01000000 		.word	1
 1010 000c 01000000 		.word	1
 1011 0010 02000000 		.word	2
 1012 0014 03000000 		.word	3
 1013 0018 03000000 		.word	3
 1014 001c 00000000 		.word	0
 1015 0020 00000000 		.word	0
 1016 0024 01000000 		.word	1
 1017 0028 02000000 		.word	2
 1018 002c 02000000 		.word	2
 1019 0030 03000000 		.word	3
 1020 0034 03000000 		.word	3
 1021 0038 00000000 		.word	0
 1022 003c 01000000 		.word	1
 1023 0040 02000000 		.word	2
 1024 0044 02000000 		.word	2
 1025 0048 03000000 		.word	3
 1026 004c 04000000 		.word	4
 1027 0050 04000000 		.word	4
 1028 0054 01000000 		.word	1
 1029 0058 01000000 		.word	1
 1030 005c 02000000 		.word	2
 1031 0060 03000000 		.word	3
 1032 0064 04000000 		.word	4
 1033 0068 05000000 		.word	5
 1034 006c 05000000 		.word	5
 1035 0070 01000000 		.word	1
 1036 0074 02000000 		.word	2
 1037 0078 03000000 		.word	3
 1038 007c 04000000 		.word	4
 1039 0080 04000000 		.word	4
 1040 0084 05000000 		.word	5
 1041 0088 06000000 		.word	6
 1042 008c 03000000 		.word	3
 1043 0090 03000000 		.word	3
 1044 0094 04000000 		.word	4
 1045 0098 04000000 		.word	4
 1046 009c 05000000 		.word	5
 1047 00a0 06000000 		.word	6
ARM GAS  /tmp/ccDfZCfa.s 			page 22


 1048 00a4 06000000 		.word	6
 1049 00a8 03000000 		.word	3
 1050 00ac 03000000 		.word	3
 1051 00b0 04000000 		.word	4
 1052 00b4 05000000 		.word	5
 1053 00b8 05000000 		.word	5
 1054 00bc 06000000 		.word	6
 1055 00c0 06000000 		.word	6
 1056              		.section	.data.kp_rules,"aw"
 1057              		.align	2
 1058              		.set	.LANCHOR3,. + 0
 1061              	kp_rules:
 1062 0000 06000000 		.word	6
 1063 0004 06000000 		.word	6
 1064 0008 05000000 		.word	5
 1065 000c 05000000 		.word	5
 1066 0010 04000000 		.word	4
 1067 0014 03000000 		.word	3
 1068 0018 03000000 		.word	3
 1069 001c 06000000 		.word	6
 1070 0020 06000000 		.word	6
 1071 0024 05000000 		.word	5
 1072 0028 04000000 		.word	4
 1073 002c 04000000 		.word	4
 1074 0030 03000000 		.word	3
 1075 0034 02000000 		.word	2
 1076 0038 05000000 		.word	5
 1077 003c 05000000 		.word	5
 1078 0040 05000000 		.word	5
 1079 0044 04000000 		.word	4
 1080 0048 03000000 		.word	3
 1081 004c 02000000 		.word	2
 1082 0050 02000000 		.word	2
 1083 0054 05000000 		.word	5
 1084 0058 05000000 		.word	5
 1085 005c 04000000 		.word	4
 1086 0060 03000000 		.word	3
 1087 0064 02000000 		.word	2
 1088 0068 01000000 		.word	1
 1089 006c 01000000 		.word	1
 1090 0070 04000000 		.word	4
 1091 0074 04000000 		.word	4
 1092 0078 03000000 		.word	3
 1093 007c 02000000 		.word	2
 1094 0080 02000000 		.word	2
 1095 0084 01000000 		.word	1
 1096 0088 01000000 		.word	1
 1097 008c 04000000 		.word	4
 1098 0090 03000000 		.word	3
 1099 0094 02000000 		.word	2
 1100 0098 01000000 		.word	1
 1101 009c 01000000 		.word	1
 1102 00a0 01000000 		.word	1
 1103 00a4 00000000 		.word	0
 1104 00a8 03000000 		.word	3
 1105 00ac 03000000 		.word	3
 1106 00b0 01000000 		.word	1
ARM GAS  /tmp/ccDfZCfa.s 			page 23


 1107 00b4 01000000 		.word	1
 1108 00b8 01000000 		.word	1
 1109 00bc 00000000 		.word	0
 1110 00c0 00000000 		.word	0
 1111              		.text
 1112              	.Letext0:
 1113              		.file 2 "/home/love/Documents/gcc-arm-none-eabi-10-2020-q4-major/arm-none-eabi/include/machine/_de
 1114              		.file 3 "/home/love/Documents/gcc-arm-none-eabi-10-2020-q4-major/arm-none-eabi/include/sys/_stdint
 1115              		.file 4 "/home/love/Documents/gcc-arm-none-eabi-10-2020-q4-major/arm-none-eabi/include/stdint.h"
 1116              		.file 5 "/home/love/Documents/gcc-arm-none-eabi-10-2020-q4-major/lib/gcc/arm-none-eabi/10.2.1/incl
 1117              		.file 6 "/home/love/Documents/gcc-arm-none-eabi-10-2020-q4-major/arm-none-eabi/include/c++/10.2.1/
 1118              		.file 7 "/home/love/Documents/gcc-arm-none-eabi-10-2020-q4-major/arm-none-eabi/include/c++/10.2.1/
 1119              		.file 8 "/home/love/Documents/gcc-arm-none-eabi-10-2020-q4-major/arm-none-eabi/include/c++/10.2.1/
 1120              		.file 9 "/home/love/Documents/gcc-arm-none-eabi-10-2020-q4-major/arm-none-eabi/include/c++/10.2.1/
 1121              		.file 10 "/home/love/Documents/gcc-arm-none-eabi-10-2020-q4-major/arm-none-eabi/include/c++/10.2.1
 1122              		.file 11 "/home/love/Documents/gcc-arm-none-eabi-10-2020-q4-major/arm-none-eabi/include/c++/10.2.1
 1123              		.file 12 "/home/love/Documents/gcc-arm-none-eabi-10-2020-q4-major/arm-none-eabi/include/c++/10.2.1
 1124              		.file 13 "/home/love/Documents/gcc-arm-none-eabi-10-2020-q4-major/arm-none-eabi/include/c++/10.2.1
 1125              		.file 14 "/home/love/Documents/gcc-arm-none-eabi-10-2020-q4-major/arm-none-eabi/include/c++/10.2.1
 1126              		.file 15 "/home/love/Documents/gcc-arm-none-eabi-10-2020-q4-major/arm-none-eabi/include/c++/10.2.1
 1127              		.file 16 "/home/love/Documents/gcc-arm-none-eabi-10-2020-q4-major/arm-none-eabi/include/c++/10.2.1
 1128              		.file 17 "/home/love/Documents/gcc-arm-none-eabi-10-2020-q4-major/arm-none-eabi/include/c++/10.2.1
 1129              		.file 18 "/home/love/Documents/gcc-arm-none-eabi-10-2020-q4-major/arm-none-eabi/include/c++/10.2.1
 1130              		.file 19 "/home/love/Documents/gcc-arm-none-eabi-10-2020-q4-major/arm-none-eabi/include/c++/10.2.1
 1131              		.file 20 "/home/love/Documents/gcc-arm-none-eabi-10-2020-q4-major/arm-none-eabi/include/sys/_types
 1132              		.file 21 "/home/love/Documents/gcc-arm-none-eabi-10-2020-q4-major/arm-none-eabi/include/sys/reent.
 1133              		.file 22 "/home/love/Documents/gcc-arm-none-eabi-10-2020-q4-major/arm-none-eabi/include/sys/lock.h
 1134              		.file 23 "/home/love/Documents/gcc-arm-none-eabi-10-2020-q4-major/arm-none-eabi/include/math.h"
 1135              		.file 24 "/home/love/Documents/gcc-arm-none-eabi-10-2020-q4-major/arm-none-eabi/include/stdlib.h"
 1136              		.file 25 "/home/love/Documents/gcc-arm-none-eabi-10-2020-q4-major/arm-none-eabi/include/c++/10.2.1
 1137              		.file 26 "/home/love/Documents/gcc-arm-none-eabi-10-2020-q4-major/lib/gcc/arm-none-eabi/10.2.1/inc
 1138              		.file 27 "/home/love/Documents/gcc-arm-none-eabi-10-2020-q4-major/arm-none-eabi/include/wchar.h"
 1139              		.file 28 "Core/Inc/utils/linalg.h"
 1140              		.file 29 "Core/Inc/control/fuzzy_pid.h"
 1141              		.file 30 "<built-in>"
ARM GAS  /tmp/ccDfZCfa.s 			page 24

