ARM GAS  /tmp/ccxBFobC.s 			page 1


   1              		.cpu cortex-m4
   2              		.eabi_attribute 27, 1
   3              		.eabi_attribute 28, 1
   4              		.eabi_attribute 20, 1
   5              		.eabi_attribute 21, 1
   6              		.eabi_attribute 23, 3
   7              		.eabi_attribute 24, 1
   8              		.eabi_attribute 25, 1
   9              		.eabi_attribute 26, 1
  10              		.eabi_attribute 30, 1
  11              		.eabi_attribute 34, 1
  12              		.eabi_attribute 18, 4
  13              		.file	"stm32f4xx_it.c"
  14              		.text
  15              	.Ltext0:
  16              		.cfi_sections	.debug_frame
  17              		.section	.text.NMI_Handler,"ax",%progbits
  18              		.align	1
  19              		.global	NMI_Handler
  20              		.arch armv7e-m
  21              		.syntax unified
  22              		.thumb
  23              		.thumb_func
  24              		.fpu fpv4-sp-d16
  26              	NMI_Handler:
  27              	.LFB135:
  28              		.file 1 "Core/Src/sys/stm32f4xx_it.c"
   1:Core/Src/sys/stm32f4xx_it.c **** /* USER CODE BEGIN Header */
   2:Core/Src/sys/stm32f4xx_it.c **** /**
   3:Core/Src/sys/stm32f4xx_it.c ****   ******************************************************************************
   4:Core/Src/sys/stm32f4xx_it.c ****   * @file    stm32f4xx_it.c
   5:Core/Src/sys/stm32f4xx_it.c ****   * @brief   Interrupt Service Routines.
   6:Core/Src/sys/stm32f4xx_it.c ****   ******************************************************************************
   7:Core/Src/sys/stm32f4xx_it.c ****   * @attention
   8:Core/Src/sys/stm32f4xx_it.c ****   *
   9:Core/Src/sys/stm32f4xx_it.c ****   * <h2><center>&copy; Copyright (c) 2020 STMicroelectronics.
  10:Core/Src/sys/stm32f4xx_it.c ****   * All rights reserved.</center></h2>
  11:Core/Src/sys/stm32f4xx_it.c ****   *
  12:Core/Src/sys/stm32f4xx_it.c ****   * This software component is licensed by ST under Ultimate Liberty license
  13:Core/Src/sys/stm32f4xx_it.c ****   * SLA0044, the "License"; You may not use this file except in compliance with
  14:Core/Src/sys/stm32f4xx_it.c ****   * the License. You may obtain a copy of the License at:
  15:Core/Src/sys/stm32f4xx_it.c ****   *                             www.st.com/SLA0044
  16:Core/Src/sys/stm32f4xx_it.c ****   *
  17:Core/Src/sys/stm32f4xx_it.c ****   ******************************************************************************
  18:Core/Src/sys/stm32f4xx_it.c ****   */
  19:Core/Src/sys/stm32f4xx_it.c **** /* USER CODE END Header */
  20:Core/Src/sys/stm32f4xx_it.c **** 
  21:Core/Src/sys/stm32f4xx_it.c **** /* Includes ------------------------------------------------------------------*/
  22:Core/Src/sys/stm32f4xx_it.c **** #include "main.h"
  23:Core/Src/sys/stm32f4xx_it.c **** #include "stm32f4xx_it.h"
  24:Core/Src/sys/stm32f4xx_it.c **** #include "FreeRTOS.h"
  25:Core/Src/sys/stm32f4xx_it.c **** #include "task.h"
  26:Core/Src/sys/stm32f4xx_it.c **** /* Private includes ----------------------------------------------------------*/
  27:Core/Src/sys/stm32f4xx_it.c **** /* USER CODE BEGIN Includes */
  28:Core/Src/sys/stm32f4xx_it.c **** /* USER CODE END Includes */
  29:Core/Src/sys/stm32f4xx_it.c **** 
  30:Core/Src/sys/stm32f4xx_it.c **** /* Private typedef -----------------------------------------------------------*/
ARM GAS  /tmp/ccxBFobC.s 			page 2


  31:Core/Src/sys/stm32f4xx_it.c **** /* USER CODE BEGIN TD */
  32:Core/Src/sys/stm32f4xx_it.c **** 
  33:Core/Src/sys/stm32f4xx_it.c **** /* USER CODE END TD */
  34:Core/Src/sys/stm32f4xx_it.c **** 
  35:Core/Src/sys/stm32f4xx_it.c **** /* Private define ------------------------------------------------------------*/
  36:Core/Src/sys/stm32f4xx_it.c **** /* USER CODE BEGIN PD */
  37:Core/Src/sys/stm32f4xx_it.c ****  
  38:Core/Src/sys/stm32f4xx_it.c **** /* USER CODE END PD */
  39:Core/Src/sys/stm32f4xx_it.c **** 
  40:Core/Src/sys/stm32f4xx_it.c **** /* Private macro -------------------------------------------------------------*/
  41:Core/Src/sys/stm32f4xx_it.c **** /* USER CODE BEGIN PM */
  42:Core/Src/sys/stm32f4xx_it.c **** 
  43:Core/Src/sys/stm32f4xx_it.c **** /* USER CODE END PM */
  44:Core/Src/sys/stm32f4xx_it.c **** 
  45:Core/Src/sys/stm32f4xx_it.c **** /* Private variables ---------------------------------------------------------*/
  46:Core/Src/sys/stm32f4xx_it.c **** /* USER CODE BEGIN PV */
  47:Core/Src/sys/stm32f4xx_it.c **** 
  48:Core/Src/sys/stm32f4xx_it.c **** /* USER CODE END PV */
  49:Core/Src/sys/stm32f4xx_it.c **** 
  50:Core/Src/sys/stm32f4xx_it.c **** /* Private function prototypes -----------------------------------------------*/
  51:Core/Src/sys/stm32f4xx_it.c **** /* USER CODE BEGIN PFP */
  52:Core/Src/sys/stm32f4xx_it.c **** 
  53:Core/Src/sys/stm32f4xx_it.c **** /* USER CODE END PFP */
  54:Core/Src/sys/stm32f4xx_it.c **** 
  55:Core/Src/sys/stm32f4xx_it.c **** /* Private user code ---------------------------------------------------------*/
  56:Core/Src/sys/stm32f4xx_it.c **** /* USER CODE BEGIN 0 */
  57:Core/Src/sys/stm32f4xx_it.c **** 
  58:Core/Src/sys/stm32f4xx_it.c **** /* USER CODE END 0 */
  59:Core/Src/sys/stm32f4xx_it.c **** 
  60:Core/Src/sys/stm32f4xx_it.c **** /* External variables --------------------------------------------------------*/
  61:Core/Src/sys/stm32f4xx_it.c **** extern TIM_HandleTypeDef htim5;
  62:Core/Src/sys/stm32f4xx_it.c **** extern DMA_HandleTypeDef hdma_uart4_rx;
  63:Core/Src/sys/stm32f4xx_it.c **** extern UART_HandleTypeDef huart4;
  64:Core/Src/sys/stm32f4xx_it.c **** extern TIM_HandleTypeDef htim10;
  65:Core/Src/sys/stm32f4xx_it.c **** /* USER CODE BEGIN EV */
  66:Core/Src/sys/stm32f4xx_it.c **** 
  67:Core/Src/sys/stm32f4xx_it.c **** /* USER CODE END EV */
  68:Core/Src/sys/stm32f4xx_it.c **** 
  69:Core/Src/sys/stm32f4xx_it.c **** /******************************************************************************/
  70:Core/Src/sys/stm32f4xx_it.c **** /*           Cortex-M4 Processor Interruption and Exception Handlers          */ 
  71:Core/Src/sys/stm32f4xx_it.c **** /******************************************************************************/
  72:Core/Src/sys/stm32f4xx_it.c **** /**
  73:Core/Src/sys/stm32f4xx_it.c ****   * @brief This function handles Non maskable interrupt.
  74:Core/Src/sys/stm32f4xx_it.c ****   */
  75:Core/Src/sys/stm32f4xx_it.c **** void NMI_Handler(void)
  76:Core/Src/sys/stm32f4xx_it.c **** {
  29              		.loc 1 76 1 view -0
  30              		.cfi_startproc
  31              		@ args = 0, pretend = 0, frame = 0
  32              		@ frame_needed = 0, uses_anonymous_args = 0
  33              		@ link register save eliminated.
  77:Core/Src/sys/stm32f4xx_it.c ****   /* USER CODE BEGIN NonMaskableInt_IRQn 0 */
  78:Core/Src/sys/stm32f4xx_it.c **** 
  79:Core/Src/sys/stm32f4xx_it.c ****   /* USER CODE END NonMaskableInt_IRQn 0 */
  80:Core/Src/sys/stm32f4xx_it.c ****   /* USER CODE BEGIN NonMaskableInt_IRQn 1 */
  81:Core/Src/sys/stm32f4xx_it.c **** 
  82:Core/Src/sys/stm32f4xx_it.c ****   /* USER CODE END NonMaskableInt_IRQn 1 */
ARM GAS  /tmp/ccxBFobC.s 			page 3


  83:Core/Src/sys/stm32f4xx_it.c **** }
  34              		.loc 1 83 1 view .LVU1
  35 0000 7047     		bx	lr
  36              		.cfi_endproc
  37              	.LFE135:
  39              		.section	.text.HardFault_Handler,"ax",%progbits
  40              		.align	1
  41              		.global	HardFault_Handler
  42              		.syntax unified
  43              		.thumb
  44              		.thumb_func
  45              		.fpu fpv4-sp-d16
  47              	HardFault_Handler:
  48              	.LFB136:
  84:Core/Src/sys/stm32f4xx_it.c **** 
  85:Core/Src/sys/stm32f4xx_it.c **** /**
  86:Core/Src/sys/stm32f4xx_it.c ****   * @brief This function handles Hard fault interrupt.
  87:Core/Src/sys/stm32f4xx_it.c ****   */
  88:Core/Src/sys/stm32f4xx_it.c **** void HardFault_Handler(void)
  89:Core/Src/sys/stm32f4xx_it.c **** {
  49              		.loc 1 89 1 view -0
  50              		.cfi_startproc
  51              		@ Volatile: function does not return.
  52              		@ args = 0, pretend = 0, frame = 0
  53              		@ frame_needed = 0, uses_anonymous_args = 0
  54              		@ link register save eliminated.
  55              	.L3:
  90:Core/Src/sys/stm32f4xx_it.c ****   /* USER CODE BEGIN HardFault_IRQn 0 */
  91:Core/Src/sys/stm32f4xx_it.c **** 
  92:Core/Src/sys/stm32f4xx_it.c ****   /* USER CODE END HardFault_IRQn 0 */
  93:Core/Src/sys/stm32f4xx_it.c ****   while (1)
  56              		.loc 1 93 3 discriminator 1 view .LVU3
  94:Core/Src/sys/stm32f4xx_it.c ****   {
  95:Core/Src/sys/stm32f4xx_it.c ****     /* USER CODE BEGIN W1_HardFault_IRQn 0 */
  96:Core/Src/sys/stm32f4xx_it.c ****     /* USER CODE END W1_HardFault_IRQn 0 */
  97:Core/Src/sys/stm32f4xx_it.c ****   }
  57              		.loc 1 97 3 discriminator 1 view .LVU4
  93:Core/Src/sys/stm32f4xx_it.c ****   {
  58              		.loc 1 93 9 discriminator 1 view .LVU5
  59 0000 FEE7     		b	.L3
  60              		.cfi_endproc
  61              	.LFE136:
  63              		.section	.text.MemManage_Handler,"ax",%progbits
  64              		.align	1
  65              		.global	MemManage_Handler
  66              		.syntax unified
  67              		.thumb
  68              		.thumb_func
  69              		.fpu fpv4-sp-d16
  71              	MemManage_Handler:
  72              	.LFB137:
  98:Core/Src/sys/stm32f4xx_it.c **** }
  99:Core/Src/sys/stm32f4xx_it.c **** 
 100:Core/Src/sys/stm32f4xx_it.c **** /**
 101:Core/Src/sys/stm32f4xx_it.c ****   * @brief This function handles Memory management fault.
 102:Core/Src/sys/stm32f4xx_it.c ****   */
 103:Core/Src/sys/stm32f4xx_it.c **** void MemManage_Handler(void)
ARM GAS  /tmp/ccxBFobC.s 			page 4


 104:Core/Src/sys/stm32f4xx_it.c **** {
  73              		.loc 1 104 1 view -0
  74              		.cfi_startproc
  75              		@ Volatile: function does not return.
  76              		@ args = 0, pretend = 0, frame = 0
  77              		@ frame_needed = 0, uses_anonymous_args = 0
  78              		@ link register save eliminated.
  79              	.L5:
 105:Core/Src/sys/stm32f4xx_it.c ****   /* USER CODE BEGIN MemoryManagement_IRQn 0 */
 106:Core/Src/sys/stm32f4xx_it.c **** 
 107:Core/Src/sys/stm32f4xx_it.c ****   /* USER CODE END MemoryManagement_IRQn 0 */
 108:Core/Src/sys/stm32f4xx_it.c ****   while (1)
  80              		.loc 1 108 3 discriminator 1 view .LVU7
 109:Core/Src/sys/stm32f4xx_it.c ****   {
 110:Core/Src/sys/stm32f4xx_it.c ****     /* USER CODE BEGIN W1_MemoryManagement_IRQn 0 */
 111:Core/Src/sys/stm32f4xx_it.c ****     /* USER CODE END W1_MemoryManagement_IRQn 0 */
 112:Core/Src/sys/stm32f4xx_it.c ****   }
  81              		.loc 1 112 3 discriminator 1 view .LVU8
 108:Core/Src/sys/stm32f4xx_it.c ****   {
  82              		.loc 1 108 9 discriminator 1 view .LVU9
  83 0000 FEE7     		b	.L5
  84              		.cfi_endproc
  85              	.LFE137:
  87              		.section	.text.BusFault_Handler,"ax",%progbits
  88              		.align	1
  89              		.global	BusFault_Handler
  90              		.syntax unified
  91              		.thumb
  92              		.thumb_func
  93              		.fpu fpv4-sp-d16
  95              	BusFault_Handler:
  96              	.LFB138:
 113:Core/Src/sys/stm32f4xx_it.c **** }
 114:Core/Src/sys/stm32f4xx_it.c **** 
 115:Core/Src/sys/stm32f4xx_it.c **** /**
 116:Core/Src/sys/stm32f4xx_it.c ****   * @brief This function handles Pre-fetch fault, memory access fault.
 117:Core/Src/sys/stm32f4xx_it.c ****   */
 118:Core/Src/sys/stm32f4xx_it.c **** void BusFault_Handler(void)
 119:Core/Src/sys/stm32f4xx_it.c **** {
  97              		.loc 1 119 1 view -0
  98              		.cfi_startproc
  99              		@ Volatile: function does not return.
 100              		@ args = 0, pretend = 0, frame = 0
 101              		@ frame_needed = 0, uses_anonymous_args = 0
 102              		@ link register save eliminated.
 103              	.L7:
 120:Core/Src/sys/stm32f4xx_it.c ****   /* USER CODE BEGIN BusFault_IRQn 0 */
 121:Core/Src/sys/stm32f4xx_it.c **** 
 122:Core/Src/sys/stm32f4xx_it.c ****   /* USER CODE END BusFault_IRQn 0 */
 123:Core/Src/sys/stm32f4xx_it.c ****   while (1)
 104              		.loc 1 123 3 discriminator 1 view .LVU11
 124:Core/Src/sys/stm32f4xx_it.c ****   {
 125:Core/Src/sys/stm32f4xx_it.c ****     /* USER CODE BEGIN W1_BusFault_IRQn 0 */
 126:Core/Src/sys/stm32f4xx_it.c ****     /* USER CODE END W1_BusFault_IRQn 0 */
 127:Core/Src/sys/stm32f4xx_it.c ****   }
 105              		.loc 1 127 3 discriminator 1 view .LVU12
 123:Core/Src/sys/stm32f4xx_it.c ****   {
ARM GAS  /tmp/ccxBFobC.s 			page 5


 106              		.loc 1 123 9 discriminator 1 view .LVU13
 107 0000 FEE7     		b	.L7
 108              		.cfi_endproc
 109              	.LFE138:
 111              		.section	.text.UsageFault_Handler,"ax",%progbits
 112              		.align	1
 113              		.global	UsageFault_Handler
 114              		.syntax unified
 115              		.thumb
 116              		.thumb_func
 117              		.fpu fpv4-sp-d16
 119              	UsageFault_Handler:
 120              	.LFB139:
 128:Core/Src/sys/stm32f4xx_it.c **** }
 129:Core/Src/sys/stm32f4xx_it.c **** 
 130:Core/Src/sys/stm32f4xx_it.c **** /**
 131:Core/Src/sys/stm32f4xx_it.c ****   * @brief This function handles Undefined instruction or illegal state.
 132:Core/Src/sys/stm32f4xx_it.c ****   */
 133:Core/Src/sys/stm32f4xx_it.c **** void UsageFault_Handler(void)
 134:Core/Src/sys/stm32f4xx_it.c **** {
 121              		.loc 1 134 1 view -0
 122              		.cfi_startproc
 123              		@ Volatile: function does not return.
 124              		@ args = 0, pretend = 0, frame = 0
 125              		@ frame_needed = 0, uses_anonymous_args = 0
 126              		@ link register save eliminated.
 127              	.L9:
 135:Core/Src/sys/stm32f4xx_it.c ****   /* USER CODE BEGIN UsageFault_IRQn 0 */
 136:Core/Src/sys/stm32f4xx_it.c **** 
 137:Core/Src/sys/stm32f4xx_it.c ****   /* USER CODE END UsageFault_IRQn 0 */
 138:Core/Src/sys/stm32f4xx_it.c ****   while (1)
 128              		.loc 1 138 3 discriminator 1 view .LVU15
 139:Core/Src/sys/stm32f4xx_it.c ****   {
 140:Core/Src/sys/stm32f4xx_it.c ****     /* USER CODE BEGIN W1_UsageFault_IRQn 0 */
 141:Core/Src/sys/stm32f4xx_it.c ****     /* USER CODE END W1_UsageFault_IRQn 0 */
 142:Core/Src/sys/stm32f4xx_it.c ****   }
 129              		.loc 1 142 3 discriminator 1 view .LVU16
 138:Core/Src/sys/stm32f4xx_it.c ****   {
 130              		.loc 1 138 9 discriminator 1 view .LVU17
 131 0000 FEE7     		b	.L9
 132              		.cfi_endproc
 133              	.LFE139:
 135              		.section	.text.DebugMon_Handler,"ax",%progbits
 136              		.align	1
 137              		.global	DebugMon_Handler
 138              		.syntax unified
 139              		.thumb
 140              		.thumb_func
 141              		.fpu fpv4-sp-d16
 143              	DebugMon_Handler:
 144              	.LFB140:
 143:Core/Src/sys/stm32f4xx_it.c **** }
 144:Core/Src/sys/stm32f4xx_it.c **** 
 145:Core/Src/sys/stm32f4xx_it.c **** /**
 146:Core/Src/sys/stm32f4xx_it.c ****   * @brief This function handles Debug monitor.
 147:Core/Src/sys/stm32f4xx_it.c ****   */
 148:Core/Src/sys/stm32f4xx_it.c **** void DebugMon_Handler(void)
ARM GAS  /tmp/ccxBFobC.s 			page 6


 149:Core/Src/sys/stm32f4xx_it.c **** {
 145              		.loc 1 149 1 view -0
 146              		.cfi_startproc
 147              		@ args = 0, pretend = 0, frame = 0
 148              		@ frame_needed = 0, uses_anonymous_args = 0
 149              		@ link register save eliminated.
 150:Core/Src/sys/stm32f4xx_it.c ****   /* USER CODE BEGIN DebugMonitor_IRQn 0 */
 151:Core/Src/sys/stm32f4xx_it.c **** 
 152:Core/Src/sys/stm32f4xx_it.c ****   /* USER CODE END DebugMonitor_IRQn 0 */
 153:Core/Src/sys/stm32f4xx_it.c ****   /* USER CODE BEGIN DebugMonitor_IRQn 1 */
 154:Core/Src/sys/stm32f4xx_it.c **** 
 155:Core/Src/sys/stm32f4xx_it.c ****   /* USER CODE END DebugMonitor_IRQn 1 */
 156:Core/Src/sys/stm32f4xx_it.c **** }
 150              		.loc 1 156 1 view .LVU19
 151 0000 7047     		bx	lr
 152              		.cfi_endproc
 153              	.LFE140:
 155              		.section	.text.TIM5_IRQHandler,"ax",%progbits
 156              		.align	1
 157              		.global	TIM5_IRQHandler
 158              		.syntax unified
 159              		.thumb
 160              		.thumb_func
 161              		.fpu fpv4-sp-d16
 163              	TIM5_IRQHandler:
 164              	.LFB141:
 157:Core/Src/sys/stm32f4xx_it.c **** 
 158:Core/Src/sys/stm32f4xx_it.c **** /******************************************************************************/
 159:Core/Src/sys/stm32f4xx_it.c **** /* STM32F4xx Peripheral Interrupt Handlers                                    */
 160:Core/Src/sys/stm32f4xx_it.c **** /* Add here the Interrupt Handlers for the used peripherals.                  */
 161:Core/Src/sys/stm32f4xx_it.c **** /* For the available peripheral interrupt handler names,                      */
 162:Core/Src/sys/stm32f4xx_it.c **** /* please refer to the startup file (startup_stm32f4xx.s).                    */
 163:Core/Src/sys/stm32f4xx_it.c **** /******************************************************************************/
 164:Core/Src/sys/stm32f4xx_it.c **** 
 165:Core/Src/sys/stm32f4xx_it.c **** /**
 166:Core/Src/sys/stm32f4xx_it.c ****   * @brief This function handles TIM5 global interrupt.
 167:Core/Src/sys/stm32f4xx_it.c ****   */
 168:Core/Src/sys/stm32f4xx_it.c **** void TIM5_IRQHandler(void)
 169:Core/Src/sys/stm32f4xx_it.c **** {
 165              		.loc 1 169 1 view -0
 166              		.cfi_startproc
 167              		@ args = 0, pretend = 0, frame = 0
 168              		@ frame_needed = 0, uses_anonymous_args = 0
 169 0000 08B5     		push	{r3, lr}
 170              	.LCFI0:
 171              		.cfi_def_cfa_offset 8
 172              		.cfi_offset 3, -8
 173              		.cfi_offset 14, -4
 170:Core/Src/sys/stm32f4xx_it.c ****   /* USER CODE BEGIN TIM5_IRQn 0 */
 171:Core/Src/sys/stm32f4xx_it.c **** 
 172:Core/Src/sys/stm32f4xx_it.c ****   /* USER CODE END TIM5_IRQn 0 */
 173:Core/Src/sys/stm32f4xx_it.c ****   HAL_TIM_IRQHandler(&htim5);
 174              		.loc 1 173 3 view .LVU21
 175 0002 0248     		ldr	r0, .L13
 176 0004 FFF7FEFF 		bl	HAL_TIM_IRQHandler
 177              	.LVL0:
 174:Core/Src/sys/stm32f4xx_it.c ****   /* USER CODE BEGIN TIM5_IRQn 1 */
ARM GAS  /tmp/ccxBFobC.s 			page 7


 175:Core/Src/sys/stm32f4xx_it.c **** 
 176:Core/Src/sys/stm32f4xx_it.c ****   /* USER CODE END TIM5_IRQn 1 */
 177:Core/Src/sys/stm32f4xx_it.c **** }
 178              		.loc 1 177 1 is_stmt 0 view .LVU22
 179 0008 08BD     		pop	{r3, pc}
 180              	.L14:
 181 000a 00BF     		.align	2
 182              	.L13:
 183 000c 00000000 		.word	htim5
 184              		.cfi_endproc
 185              	.LFE141:
 187              		.section	.text.DMA1_Stream2_IRQHandler,"ax",%progbits
 188              		.align	1
 189              		.global	DMA1_Stream2_IRQHandler
 190              		.syntax unified
 191              		.thumb
 192              		.thumb_func
 193              		.fpu fpv4-sp-d16
 195              	DMA1_Stream2_IRQHandler:
 196              	.LFB142:
 178:Core/Src/sys/stm32f4xx_it.c **** void DMA1_Stream2_IRQHandler(void)
 179:Core/Src/sys/stm32f4xx_it.c **** {
 197              		.loc 1 179 1 is_stmt 1 view -0
 198              		.cfi_startproc
 199              		@ args = 0, pretend = 0, frame = 0
 200              		@ frame_needed = 0, uses_anonymous_args = 0
 201 0000 08B5     		push	{r3, lr}
 202              	.LCFI1:
 203              		.cfi_def_cfa_offset 8
 204              		.cfi_offset 3, -8
 205              		.cfi_offset 14, -4
 180:Core/Src/sys/stm32f4xx_it.c ****   /* USER CODE BEGIN DMA1_Stream1_IRQn 0 */
 181:Core/Src/sys/stm32f4xx_it.c **** 
 182:Core/Src/sys/stm32f4xx_it.c ****   /* USER CODE END DMA1_Stream1_IRQn 0 */
 183:Core/Src/sys/stm32f4xx_it.c ****   HAL_DMA_IRQHandler(&hdma_uart4_rx);
 206              		.loc 1 183 3 view .LVU24
 207 0002 0248     		ldr	r0, .L17
 208 0004 FFF7FEFF 		bl	HAL_DMA_IRQHandler
 209              	.LVL1:
 184:Core/Src/sys/stm32f4xx_it.c ****   /* USER CODE BEGIN DMA1_Stream1_IRQn 1 */
 185:Core/Src/sys/stm32f4xx_it.c **** 
 186:Core/Src/sys/stm32f4xx_it.c ****   /* USER CODE END DMA1_Stream1_IRQn 1 */
 187:Core/Src/sys/stm32f4xx_it.c **** }
 210              		.loc 1 187 1 is_stmt 0 view .LVU25
 211 0008 08BD     		pop	{r3, pc}
 212              	.L18:
 213 000a 00BF     		.align	2
 214              	.L17:
 215 000c 00000000 		.word	hdma_uart4_rx
 216              		.cfi_endproc
 217              	.LFE142:
 219              		.section	.text.UART4_IRQHandler,"ax",%progbits
 220              		.align	1
 221              		.global	UART4_IRQHandler
 222              		.syntax unified
 223              		.thumb
 224              		.thumb_func
ARM GAS  /tmp/ccxBFobC.s 			page 8


 225              		.fpu fpv4-sp-d16
 227              	UART4_IRQHandler:
 228              	.LFB143:
 188:Core/Src/sys/stm32f4xx_it.c **** /**
 189:Core/Src/sys/stm32f4xx_it.c ****   * @brief This function handles USART3 global interrupt.
 190:Core/Src/sys/stm32f4xx_it.c ****   */
 191:Core/Src/sys/stm32f4xx_it.c **** void UART4_IRQHandler(void)
 192:Core/Src/sys/stm32f4xx_it.c **** {
 229              		.loc 1 192 1 is_stmt 1 view -0
 230              		.cfi_startproc
 231              		@ args = 0, pretend = 0, frame = 0
 232              		@ frame_needed = 0, uses_anonymous_args = 0
 233 0000 08B5     		push	{r3, lr}
 234              	.LCFI2:
 235              		.cfi_def_cfa_offset 8
 236              		.cfi_offset 3, -8
 237              		.cfi_offset 14, -4
 193:Core/Src/sys/stm32f4xx_it.c ****   /* USER CODE BEGIN USART3_IRQn 0 */
 194:Core/Src/sys/stm32f4xx_it.c **** 
 195:Core/Src/sys/stm32f4xx_it.c ****   /* USER CODE END USART3_IRQn 0 */
 196:Core/Src/sys/stm32f4xx_it.c ****   HAL_UART_IRQHandler(&huart4);
 238              		.loc 1 196 3 view .LVU27
 239 0002 0248     		ldr	r0, .L21
 240 0004 FFF7FEFF 		bl	HAL_UART_IRQHandler
 241              	.LVL2:
 197:Core/Src/sys/stm32f4xx_it.c ****   /* USER CODE BEGIN USART3_IRQn 1 */
 198:Core/Src/sys/stm32f4xx_it.c **** 
 199:Core/Src/sys/stm32f4xx_it.c ****   /* USER CODE END USART3_IRQn 1 */
 200:Core/Src/sys/stm32f4xx_it.c **** }
 242              		.loc 1 200 1 is_stmt 0 view .LVU28
 243 0008 08BD     		pop	{r3, pc}
 244              	.L22:
 245 000a 00BF     		.align	2
 246              	.L21:
 247 000c 00000000 		.word	huart4
 248              		.cfi_endproc
 249              	.LFE143:
 251              		.section	.text.TIM1_UP_TIM10_IRQHandler,"ax",%progbits
 252              		.align	1
 253              		.global	TIM1_UP_TIM10_IRQHandler
 254              		.syntax unified
 255              		.thumb
 256              		.thumb_func
 257              		.fpu fpv4-sp-d16
 259              	TIM1_UP_TIM10_IRQHandler:
 260              	.LFB144:
 201:Core/Src/sys/stm32f4xx_it.c **** void TIM1_UP_TIM10_IRQHandler(void)
 202:Core/Src/sys/stm32f4xx_it.c **** {
 261              		.loc 1 202 1 is_stmt 1 view -0
 262              		.cfi_startproc
 263              		@ args = 0, pretend = 0, frame = 0
 264              		@ frame_needed = 0, uses_anonymous_args = 0
 265 0000 08B5     		push	{r3, lr}
 266              	.LCFI3:
 267              		.cfi_def_cfa_offset 8
 268              		.cfi_offset 3, -8
 269              		.cfi_offset 14, -4
ARM GAS  /tmp/ccxBFobC.s 			page 9


 203:Core/Src/sys/stm32f4xx_it.c ****   /* USER CODE BEGIN TIM1_UP_TIM10_IRQn 0 */
 204:Core/Src/sys/stm32f4xx_it.c **** 
 205:Core/Src/sys/stm32f4xx_it.c ****   /* USER CODE END TIM1_UP_TIM10_IRQn 0 */
 206:Core/Src/sys/stm32f4xx_it.c ****   HAL_TIM_IRQHandler(&htim10);
 270              		.loc 1 206 3 view .LVU30
 271 0002 0248     		ldr	r0, .L25
 272 0004 FFF7FEFF 		bl	HAL_TIM_IRQHandler
 273              	.LVL3:
 207:Core/Src/sys/stm32f4xx_it.c ****   /* USER CODE BEGIN TIM1_UP_TIM10_IRQn 1 */
 208:Core/Src/sys/stm32f4xx_it.c **** 
 209:Core/Src/sys/stm32f4xx_it.c ****   /* USER CODE END TIM1_UP_TIM10_IRQn 1 */
 210:Core/Src/sys/stm32f4xx_it.c **** }
 274              		.loc 1 210 1 is_stmt 0 view .LVU31
 275 0008 08BD     		pop	{r3, pc}
 276              	.L26:
 277 000a 00BF     		.align	2
 278              	.L25:
 279 000c 00000000 		.word	htim10
 280              		.cfi_endproc
 281              	.LFE144:
 283              		.section	.text.EXTI4_IRQHandler,"ax",%progbits
 284              		.align	1
 285              		.global	EXTI4_IRQHandler
 286              		.syntax unified
 287              		.thumb
 288              		.thumb_func
 289              		.fpu fpv4-sp-d16
 291              	EXTI4_IRQHandler:
 292              	.LFB145:
 211:Core/Src/sys/stm32f4xx_it.c **** void EXTI4_IRQHandler(void)
 212:Core/Src/sys/stm32f4xx_it.c **** {
 293              		.loc 1 212 1 is_stmt 1 view -0
 294              		.cfi_startproc
 295              		@ args = 0, pretend = 0, frame = 0
 296              		@ frame_needed = 0, uses_anonymous_args = 0
 297 0000 08B5     		push	{r3, lr}
 298              	.LCFI4:
 299              		.cfi_def_cfa_offset 8
 300              		.cfi_offset 3, -8
 301              		.cfi_offset 14, -4
 213:Core/Src/sys/stm32f4xx_it.c ****   /* USER CODE BEGIN EXTI4_IRQn 0 */
 214:Core/Src/sys/stm32f4xx_it.c **** 
 215:Core/Src/sys/stm32f4xx_it.c ****   /* USER CODE END EXTI4_IRQn 0 */
 216:Core/Src/sys/stm32f4xx_it.c ****   HAL_GPIO_EXTI_IRQHandler(GPIO_PIN_4);
 302              		.loc 1 216 3 view .LVU33
 303 0002 1020     		movs	r0, #16
 304 0004 FFF7FEFF 		bl	HAL_GPIO_EXTI_IRQHandler
 305              	.LVL4:
 217:Core/Src/sys/stm32f4xx_it.c ****   /* USER CODE BEGIN EXTI4_IRQn 1 */
 218:Core/Src/sys/stm32f4xx_it.c **** 
 219:Core/Src/sys/stm32f4xx_it.c ****   /* USER CODE END EXTI4_IRQn 1 */
 220:Core/Src/sys/stm32f4xx_it.c **** }
 306              		.loc 1 220 1 is_stmt 0 view .LVU34
 307 0008 08BD     		pop	{r3, pc}
 308              		.cfi_endproc
 309              	.LFE145:
 311              		.section	.text.EXTI9_5_IRQHandler,"ax",%progbits
ARM GAS  /tmp/ccxBFobC.s 			page 10


 312              		.align	1
 313              		.global	EXTI9_5_IRQHandler
 314              		.syntax unified
 315              		.thumb
 316              		.thumb_func
 317              		.fpu fpv4-sp-d16
 319              	EXTI9_5_IRQHandler:
 320              	.LFB146:
 221:Core/Src/sys/stm32f4xx_it.c **** void EXTI9_5_IRQHandler(void)
 222:Core/Src/sys/stm32f4xx_it.c **** {
 321              		.loc 1 222 1 is_stmt 1 view -0
 322              		.cfi_startproc
 323              		@ args = 0, pretend = 0, frame = 0
 324              		@ frame_needed = 0, uses_anonymous_args = 0
 325 0000 08B5     		push	{r3, lr}
 326              	.LCFI5:
 327              		.cfi_def_cfa_offset 8
 328              		.cfi_offset 3, -8
 329              		.cfi_offset 14, -4
 223:Core/Src/sys/stm32f4xx_it.c ****   /* USER CODE BEGIN EXTI9_5_IRQn 0 */
 224:Core/Src/sys/stm32f4xx_it.c **** 
 225:Core/Src/sys/stm32f4xx_it.c ****   /* USER CODE END EXTI9_5_IRQn 0 */
 226:Core/Src/sys/stm32f4xx_it.c ****   HAL_GPIO_EXTI_IRQHandler(GPIO_PIN_5);
 330              		.loc 1 226 3 view .LVU36
 331 0002 2020     		movs	r0, #32
 332 0004 FFF7FEFF 		bl	HAL_GPIO_EXTI_IRQHandler
 333              	.LVL5:
 227:Core/Src/sys/stm32f4xx_it.c ****   /* USER CODE BEGIN EXTI9_5_IRQn 1 */
 228:Core/Src/sys/stm32f4xx_it.c **** 
 229:Core/Src/sys/stm32f4xx_it.c ****   /* USER CODE END EXTI9_5_IRQn 1 */
 230:Core/Src/sys/stm32f4xx_it.c **** }
 334              		.loc 1 230 1 is_stmt 0 view .LVU37
 335 0008 08BD     		pop	{r3, pc}
 336              		.cfi_endproc
 337              	.LFE146:
 339              		.text
 340              	.Letext0:
 341              		.file 2 "/home/love/Documents/gcc-arm-none-eabi-10-2020-q4-major/arm-none-eabi/include/machine/_de
 342              		.file 3 "/home/love/Documents/gcc-arm-none-eabi-10-2020-q4-major/arm-none-eabi/include/sys/_stdint
 343              		.file 4 "Drivers/CMSIS/Device/ST/STM32F4xx/Include/stm32f407xx.h"
 344              		.file 5 "Drivers/STM32F4xx_HAL_Driver/Inc/stm32f4xx_hal_def.h"
 345              		.file 6 "Drivers/STM32F4xx_HAL_Driver/Inc/stm32f4xx_hal_dma.h"
 346              		.file 7 "Drivers/STM32F4xx_HAL_Driver/Inc/stm32f4xx_hal_tim.h"
 347              		.file 8 "Drivers/STM32F4xx_HAL_Driver/Inc/stm32f4xx_hal_uart.h"
 348              		.file 9 "Drivers/STM32F4xx_HAL_Driver/Inc/stm32f4xx_hal_gpio.h"
ARM GAS  /tmp/ccxBFobC.s 			page 11

