ARM GAS  /tmp/ccaUylLU.s 			page 1


   1              		.cpu cortex-m4
   2              		.eabi_attribute 27, 1
   3              		.eabi_attribute 28, 1
   4              		.eabi_attribute 20, 1
   5              		.eabi_attribute 21, 1
   6              		.eabi_attribute 23, 3
   7              		.eabi_attribute 24, 1
   8              		.eabi_attribute 25, 1
   9              		.eabi_attribute 26, 1
  10              		.eabi_attribute 30, 1
  11              		.eabi_attribute 34, 1
  12              		.eabi_attribute 18, 4
  13              		.file	"inversekinematics.cpp"
  14              		.text
  15              	.Ltext0:
  16              		.cfi_sections	.debug_frame
  17              		.global	__aeabi_f2d
  18              		.global	__aeabi_ddiv
  19              		.global	__aeabi_d2f
  20              		.section	.text._ZN17inversekinematics24set_motorOmegaFromInvKinEv,"ax",%progbits
  21              		.align	1
  22              		.global	_ZN17inversekinematics24set_motorOmegaFromInvKinEv
  23              		.arch armv7e-m
  24              		.syntax unified
  25              		.thumb
  26              		.thumb_func
  27              		.fpu fpv4-sp-d16
  29              	_ZN17inversekinematics24set_motorOmegaFromInvKinEv:
  30              	.LVL0:
  31              	.LFB357:
  32              		.file 1 "Core/Src/actuator/inversekinematics.cpp"
   1:Core/Src/actuator/inversekinematics.cpp **** #include"inversekinematics.h"
   2:Core/Src/actuator/inversekinematics.cpp **** /*static float inverseCouplingMatrix[4][3] =   
   3:Core/Src/actuator/inversekinematics.cpp **** {   
   4:Core/Src/actuator/inversekinematics.cpp **** 	{-0.70711, 0.70711, 0.5  },
   5:Core/Src/actuator/inversekinematics.cpp **** 	{ -0.70711,-0.70711, 0.5 },
   6:Core/Src/actuator/inversekinematics.cpp **** 	{ 0.70711, -0.70711, 0.5 },
   7:Core/Src/actuator/inversekinematics.cpp **** 	{ 0.70711, 0.70711, 0.5 },
   8:Core/Src/actuator/inversekinematics.cpp **** };*/
   9:Core/Src/actuator/inversekinematics.cpp **** //based on direction of motion of robot for try robot
  10:Core/Src/actuator/inversekinematics.cpp **** 
  11:Core/Src/actuator/inversekinematics.cpp **** //based on direction of motion of robot for defence robot
  12:Core/Src/actuator/inversekinematics.cpp **** const float inverseCouplingMatrix[4][3] =
  13:Core/Src/actuator/inversekinematics.cpp **** {
  14:Core/Src/actuator/inversekinematics.cpp **** 	{-0.70711,0.70711, bodyDiameter/2},
  15:Core/Src/actuator/inversekinematics.cpp **** 	{0.70711, 0.70711, bodyDiameter/2},
  16:Core/Src/actuator/inversekinematics.cpp **** 	{ 0.70711, -0.70711, bodyDiameter/2},
  17:Core/Src/actuator/inversekinematics.cpp **** 	{ -0.70711,-0.70711,  bodyDiameter/2},
  18:Core/Src/actuator/inversekinematics.cpp **** };
  19:Core/Src/actuator/inversekinematics.cpp **** //based on direction of motion of robot for throw robot
  20:Core/Src/actuator/inversekinematics.cpp **** /*const float inverseCouplingMatrix[4][3] =
  21:Core/Src/actuator/inversekinematics.cpp **** {
  22:Core/Src/actuator/inversekinematics.cpp **** 	{0.70711, 0.70711, bodyDiameter/2},
  23:Core/Src/actuator/inversekinematics.cpp **** 	{ 0.70711,-0.70711,  bodyDiameter/2},
  24:Core/Src/actuator/inversekinematics.cpp **** 	{ -0.70711,-0.70711, bodyDiameter/2},
  25:Core/Src/actuator/inversekinematics.cpp **** 	{ -0.70711, 0.70711, bodyDiameter/2},
  26:Core/Src/actuator/inversekinematics.cpp **** };*/
ARM GAS  /tmp/ccaUylLU.s 			page 2


  27:Core/Src/actuator/inversekinematics.cpp **** void inversekinematics::set_motorOmegaFromInvKin()
  28:Core/Src/actuator/inversekinematics.cpp **** {
  33              		.loc 1 28 1 view -0
  34              		.cfi_startproc
  35              		@ args = 0, pretend = 0, frame = 16
  36              		@ frame_needed = 0, uses_anonymous_args = 0
  37              		.loc 1 28 1 is_stmt 0 view .LVU1
  38 0000 70B5     		push	{r4, r5, r6, lr}
  39              	.LCFI0:
  40              		.cfi_def_cfa_offset 16
  41              		.cfi_offset 4, -16
  42              		.cfi_offset 5, -12
  43              		.cfi_offset 6, -8
  44              		.cfi_offset 14, -4
  45 0002 84B0     		sub	sp, sp, #16
  46              	.LCFI1:
  47              		.cfi_def_cfa_offset 32
  48 0004 0546     		mov	r5, r0
  29:Core/Src/actuator/inversekinematics.cpp **** 	float vel_x_y_theta[3] = { robot_velocity[0],robot_velocity[1] ,robot_velocity[2] };
  49              		.loc 1 29 2 is_stmt 1 view .LVU2
  50              		.loc 1 29 45 is_stmt 0 view .LVU3
  51 0006 0369     		ldr	r3, [r0, #16]	@ float
  52              		.loc 1 29 84 view .LVU4
  53 0008 0193     		str	r3, [sp, #4]	@ float
  54              		.loc 1 29 63 view .LVU5
  55 000a 4369     		ldr	r3, [r0, #20]	@ float
  56              		.loc 1 29 84 view .LVU6
  57 000c 0293     		str	r3, [sp, #8]	@ float
  58              		.loc 1 29 82 view .LVU7
  59 000e 8369     		ldr	r3, [r0, #24]	@ float
  60              		.loc 1 29 84 view .LVU8
  61 0010 0393     		str	r3, [sp, #12]	@ float
  30:Core/Src/actuator/inversekinematics.cpp **** 	for (int i = 0; i < 4; i++)
  62              		.loc 1 30 2 is_stmt 1 view .LVU9
  63              	.LVL1:
  64              	.LBB2:
  65              		.loc 1 30 11 is_stmt 0 view .LVU10
  66 0012 0024     		movs	r4, #0
  67 0014 2CE0     		b	.L5
  68              	.LVL2:
  69              	.L7:
  70              	.LBB3:
  71              	.LBB4:
  31:Core/Src/actuator/inversekinematics.cpp **** 	{
  32:Core/Src/actuator/inversekinematics.cpp **** 		motor_omega[i] = 0;
  33:Core/Src/actuator/inversekinematics.cpp **** 		for (int j = 0; j < 3; j++)
  34:Core/Src/actuator/inversekinematics.cpp **** 			motor_omega[i] += inverseCouplingMatrix[i][j] * vel_x_y_theta[j];
  72              		.loc 1 34 4 is_stmt 1 discriminator 2 view .LVU11
  73              		.loc 1 34 48 is_stmt 0 discriminator 2 view .LVU12
  74 0016 04EB4402 		add	r2, r4, r4, lsl #1
  75 001a D118     		adds	r1, r2, r3
  76 001c 1C4A     		ldr	r2, .L8+8
  77 001e 02EB8102 		add	r2, r2, r1, lsl #2
  78 0022 D2ED007A 		vldr.32	s15, [r2]
  79              		.loc 1 34 67 discriminator 2 view .LVU13
  80 0026 04AA     		add	r2, sp, #16
  81 0028 02EB8302 		add	r2, r2, r3, lsl #2
ARM GAS  /tmp/ccaUylLU.s 			page 3


  82 002c 12ED037A 		vldr.32	s14, [r2, #-12]
  83              		.loc 1 34 50 discriminator 2 view .LVU14
  84 0030 27EE877A 		vmul.f32	s14, s15, s14
  85              		.loc 1 34 19 discriminator 2 view .LVU15
  86 0034 05EB8402 		add	r2, r5, r4, lsl #2
  87 0038 D2ED007A 		vldr.32	s15, [r2]
  88 003c 77EE877A 		vadd.f32	s15, s15, s14
  89 0040 C2ED007A 		vstr.32	s15, [r2]
  33:Core/Src/actuator/inversekinematics.cpp **** 			motor_omega[i] += inverseCouplingMatrix[i][j] * vel_x_y_theta[j];
  90              		.loc 1 33 3 is_stmt 1 discriminator 2 view .LVU16
  91 0044 0133     		adds	r3, r3, #1
  92              	.LVL3:
  93              	.L4:
  33:Core/Src/actuator/inversekinematics.cpp **** 			motor_omega[i] += inverseCouplingMatrix[i][j] * vel_x_y_theta[j];
  94              		.loc 1 33 21 discriminator 3 view .LVU17
  95 0046 022B     		cmp	r3, #2
  96 0048 E5DD     		ble	.L7
  97              	.LBE4:
  35:Core/Src/actuator/inversekinematics.cpp **** 		motor_omega[i] = (motor_omega[i]*2) / wheelDiameter;
  98              		.loc 1 35 3 discriminator 2 view .LVU18
  99              		.loc 1 35 34 is_stmt 0 discriminator 2 view .LVU19
 100 004a 05EB8406 		add	r6, r5, r4, lsl #2
 101 004e D6ED007A 		vldr.32	s15, [r6]
 102              		.loc 1 35 35 discriminator 2 view .LVU20
 103 0052 77EEA77A 		vadd.f32	s15, s15, s15
 104 0056 17EE900A 		vmov	r0, s15
 105 005a FFF7FEFF 		bl	__aeabi_f2d
 106              	.LVL4:
 107              		.loc 1 35 39 discriminator 2 view .LVU21
 108 005e 0AA3     		adr	r3, .L8
 109 0060 D3E90023 		ldrd	r2, [r3]
 110 0064 FFF7FEFF 		bl	__aeabi_ddiv
 111              	.LVL5:
 112 0068 FFF7FEFF 		bl	__aeabi_d2f
 113              	.LVL6:
 114              		.loc 1 35 18 discriminator 2 view .LVU22
 115 006c 3060     		str	r0, [r6]	@ float
 116              	.LBE3:
  30:Core/Src/actuator/inversekinematics.cpp **** 	{
 117              		.loc 1 30 2 is_stmt 1 discriminator 2 view .LVU23
 118 006e 0134     		adds	r4, r4, #1
 119              	.LVL7:
 120              	.L5:
  30:Core/Src/actuator/inversekinematics.cpp **** 	{
 121              		.loc 1 30 20 discriminator 1 view .LVU24
 122 0070 032C     		cmp	r4, #3
 123 0072 05DC     		bgt	.L1
 124              	.LBB6:
  32:Core/Src/actuator/inversekinematics.cpp **** 		for (int j = 0; j < 3; j++)
 125              		.loc 1 32 3 view .LVU25
  32:Core/Src/actuator/inversekinematics.cpp **** 		for (int j = 0; j < 3; j++)
 126              		.loc 1 32 18 is_stmt 0 view .LVU26
 127 0074 05EB8403 		add	r3, r5, r4, lsl #2
 128 0078 0022     		movs	r2, #0
 129 007a 1A60     		str	r2, [r3]	@ float
  33:Core/Src/actuator/inversekinematics.cpp **** 			motor_omega[i] += inverseCouplingMatrix[i][j] * vel_x_y_theta[j];
 130              		.loc 1 33 3 is_stmt 1 view .LVU27
ARM GAS  /tmp/ccaUylLU.s 			page 4


 131              	.LVL8:
 132              	.LBB5:
  33:Core/Src/actuator/inversekinematics.cpp **** 			motor_omega[i] += inverseCouplingMatrix[i][j] * vel_x_y_theta[j];
 133              		.loc 1 33 12 is_stmt 0 view .LVU28
 134 007c 0023     		movs	r3, #0
 135 007e E2E7     		b	.L4
 136              	.LVL9:
 137              	.L1:
  33:Core/Src/actuator/inversekinematics.cpp **** 			motor_omega[i] += inverseCouplingMatrix[i][j] * vel_x_y_theta[j];
 138              		.loc 1 33 12 view .LVU29
 139              	.LBE5:
 140              	.LBE6:
 141              	.LBE2:
  36:Core/Src/actuator/inversekinematics.cpp **** 
  37:Core/Src/actuator/inversekinematics.cpp **** 	}
  38:Core/Src/actuator/inversekinematics.cpp **** }
 142              		.loc 1 38 1 view .LVU30
 143 0080 04B0     		add	sp, sp, #16
 144              	.LCFI2:
 145              		.cfi_def_cfa_offset 16
 146              		@ sp needed
 147 0082 70BD     		pop	{r4, r5, r6, pc}
 148              	.LVL10:
 149              	.L9:
 150              		.loc 1 38 1 view .LVU31
 151 0084 AFF30080 		.align	3
 152              	.L8:
 153 0088 EC51B81E 		.word	515396076
 154 008c 85EBC13F 		.word	1069673349
 155 0090 00000000 		.word	.LANCHOR0
 156              		.cfi_endproc
 157              	.LFE357:
 159              		.global	__aeabi_dmul
 160              		.section	.text._ZN17inversekinematics17set_robotVelocityEfff,"ax",%progbits
 161              		.align	1
 162              		.global	_ZN17inversekinematics17set_robotVelocityEfff
 163              		.syntax unified
 164              		.thumb
 165              		.thumb_func
 166              		.fpu fpv4-sp-d16
 168              	_ZN17inversekinematics17set_robotVelocityEfff:
 169              	.LVL11:
 170              	.LFB358:
  39:Core/Src/actuator/inversekinematics.cpp **** void inversekinematics::set_robotVelocity(float vel, float direction, float omega)
  40:Core/Src/actuator/inversekinematics.cpp **** {
 171              		.loc 1 40 1 is_stmt 1 view -0
 172              		.cfi_startproc
 173              		@ args = 0, pretend = 0, frame = 0
 174              		@ frame_needed = 0, uses_anonymous_args = 0
 175              		.loc 1 40 1 is_stmt 0 view .LVU33
 176 0000 2DE9F041 		push	{r4, r5, r6, r7, r8, lr}
 177              	.LCFI3:
 178              		.cfi_def_cfa_offset 24
 179              		.cfi_offset 4, -24
 180              		.cfi_offset 5, -20
 181              		.cfi_offset 6, -16
 182              		.cfi_offset 7, -12
ARM GAS  /tmp/ccaUylLU.s 			page 5


 183              		.cfi_offset 8, -8
 184              		.cfi_offset 14, -4
 185 0004 2DED028B 		vpush.64	{d8}
 186              	.LCFI4:
 187              		.cfi_def_cfa_offset 32
 188              		.cfi_offset 80, -32
 189              		.cfi_offset 81, -28
 190 0008 0446     		mov	r4, r0
 191 000a 10EE100A 		vmov	r0, s0
 192              	.LVL12:
 193              		.loc 1 40 1 view .LVU34
 194 000e 10EE908A 		vmov	r8, s1
 195 0012 11EE105A 		vmov	r5, s2
  41:Core/Src/actuator/inversekinematics.cpp **** 	robot_velocity[0] = vel * cos((PI/180) *direction);
 196              		.loc 1 41 2 is_stmt 1 view .LVU35
 197              		.loc 1 41 22 is_stmt 0 view .LVU36
 198 0016 FFF7FEFF 		bl	__aeabi_f2d
 199              	.LVL13:
 200              		.loc 1 41 22 view .LVU37
 201 001a 0646     		mov	r6, r0
 202 001c 0F46     		mov	r7, r1
 203              		.loc 1 41 42 view .LVU38
 204 001e 4046     		mov	r0, r8	@ float
 205 0020 FFF7FEFF 		bl	__aeabi_f2d
 206              	.LVL14:
 207              		.loc 1 41 31 view .LVU39
 208 0024 16A3     		adr	r3, .L12
 209 0026 D3E90023 		ldrd	r2, [r3]
 210 002a FFF7FEFF 		bl	__aeabi_dmul
 211              	.LVL15:
 212 002e 41EC180B 		vmov	d8, r0, r1
 213 0032 41EC100B 		vmov	d0, r0, r1
 214 0036 FFF7FEFF 		bl	cos
 215              	.LVL16:
 216 003a 53EC102B 		vmov	r2, r3, d0
 217              		.loc 1 41 26 view .LVU40
 218 003e 3046     		mov	r0, r6
 219 0040 3946     		mov	r1, r7
 220 0042 FFF7FEFF 		bl	__aeabi_dmul
 221              	.LVL17:
 222 0046 FFF7FEFF 		bl	__aeabi_d2f
 223              	.LVL18:
 224              		.loc 1 41 20 view .LVU41
 225 004a 2061     		str	r0, [r4, #16]	@ float
  42:Core/Src/actuator/inversekinematics.cpp **** 	robot_velocity[1] = vel* sin((PI / 180) * direction);
 226              		.loc 1 42 2 is_stmt 1 view .LVU42
 227              		.loc 1 42 30 is_stmt 0 view .LVU43
 228 004c B0EE480A 		vmov.f32	s0, s16
 229 0050 F0EE680A 		vmov.f32	s1, s17
 230 0054 FFF7FEFF 		bl	sin
 231              	.LVL19:
 232 0058 53EC102B 		vmov	r2, r3, d0
 233              		.loc 1 42 25 view .LVU44
 234 005c 3046     		mov	r0, r6
 235 005e 3946     		mov	r1, r7
 236 0060 FFF7FEFF 		bl	__aeabi_dmul
 237              	.LVL20:
ARM GAS  /tmp/ccaUylLU.s 			page 6


 238 0064 FFF7FEFF 		bl	__aeabi_d2f
 239              	.LVL21:
 240              		.loc 1 42 20 view .LVU45
 241 0068 6061     		str	r0, [r4, #20]	@ float
  43:Core/Src/actuator/inversekinematics.cpp **** 	robot_velocity[2] = omega;
 242              		.loc 1 43 2 is_stmt 1 view .LVU46
 243              		.loc 1 43 20 is_stmt 0 view .LVU47
 244 006a A561     		str	r5, [r4, #24]	@ float
  44:Core/Src/actuator/inversekinematics.cpp **** 	set_motorOmegaFromInvKin();
 245              		.loc 1 44 2 is_stmt 1 view .LVU48
 246              		.loc 1 44 26 is_stmt 0 view .LVU49
 247 006c 2046     		mov	r0, r4
 248 006e FFF7FEFF 		bl	_ZN17inversekinematics24set_motorOmegaFromInvKinEv
 249              	.LVL22:
  45:Core/Src/actuator/inversekinematics.cpp **** }...
 250              		.loc 1 45 1 view .LVU50
 251 0072 BDEC028B 		vldm	sp!, {d8}
 252              	.LCFI5:
 253              		.cfi_restore 80
 254              		.cfi_restore 81
 255              		.cfi_def_cfa_offset 24
 256 0076 BDE8F081 		pop	{r4, r5, r6, r7, r8, pc}
 257              	.LVL23:
 258              	.L13:
 259              		.loc 1 45 1 view .LVU51
 260 007a 00BFAFF3 		.align	3
 260      0080
 261              	.L12:
 262 0080 05A11E17 		.word	387883269
 263 0084 24DF913F 		.word	1066524452
 264              		.cfi_endproc
 265              	.LFE358:
 267              		.section	.rodata._ZL21inverseCouplingMatrix,"a"
 268              		.align	2
 269              		.set	.LANCHOR0,. + 0
 272              	_ZL21inverseCouplingMatrix:
 273 0000 290535BF 		.word	-1087044311
 274 0004 2905353F 		.word	1060439337
 275 0008 9A99993E 		.word	1050253722
 276 000c 2905353F 		.word	1060439337
 277 0010 2905353F 		.word	1060439337
 278 0014 9A99993E 		.word	1050253722
 279 0018 2905353F 		.word	1060439337
 280 001c 290535BF 		.word	-1087044311
 281 0020 9A99993E 		.word	1050253722
 282 0024 290535BF 		.word	-1087044311
 283 0028 290535BF 		.word	-1087044311
 284 002c 9A99993E 		.word	1050253722
 285              		.text
 286              	.Letext0:
 287              		.file 2 "Drivers/CMSIS/Device/ST/STM32F4xx/Include/stm32f4xx.h"
 288              		.file 3 "Drivers/STM32F4xx_HAL_Driver/Inc/stm32f4xx_hal.h"
 289              		.file 4 "/home/love/Documents/gcc-arm-none-eabi-10-2020-q4-major/arm-none-eabi/include/c++/10.2.1/
 290              		.file 5 "/home/love/Documents/gcc-arm-none-eabi-10-2020-q4-major/arm-none-eabi/include/c++/10.2.1/
 291              		.file 6 "/home/love/Documents/gcc-arm-none-eabi-10-2020-q4-major/arm-none-eabi/include/c++/10.2.1/
 292              		.file 7 "/home/love/Documents/gcc-arm-none-eabi-10-2020-q4-major/arm-none-eabi/include/c++/10.2.1/
 293              		.file 8 "/home/love/Documents/gcc-arm-none-eabi-10-2020-q4-major/arm-none-eabi/include/math.h"
ARM GAS  /tmp/ccaUylLU.s 			page 7


 294              		.file 9 "/home/love/Documents/gcc-arm-none-eabi-10-2020-q4-major/arm-none-eabi/include/c++/10.2.1/
 295              		.file 10 "Core/Inc/actuator/inversekinematics.h"
 296              		.file 11 "<built-in>"
ARM GAS  /tmp/ccaUylLU.s 			page 8

