ARM GAS  /tmp/ccsgI9K4.s 			page 1


   1              		.cpu cortex-m4
   2              		.eabi_attribute 27, 1
   3              		.eabi_attribute 28, 1
   4              		.eabi_attribute 20, 1
   5              		.eabi_attribute 21, 1
   6              		.eabi_attribute 23, 3
   7              		.eabi_attribute 24, 1
   8              		.eabi_attribute 25, 1
   9              		.eabi_attribute 26, 1
  10              		.eabi_attribute 30, 1
  11              		.eabi_attribute 34, 1
  12              		.eabi_attribute 18, 4
  13              		.file	"robot_tasks.cpp"
  14              		.text
  15              	.Ltext0:
  16              		.cfi_sections	.debug_frame
  17              		.section	.text.StartRunningTask,"ax",%progbits
  18              		.align	1
  19              		.global	StartRunningTask
  20              		.arch armv7e-m
  21              		.syntax unified
  22              		.thumb
  23              		.thumb_func
  24              		.fpu fpv4-sp-d16
  26              	StartRunningTask:
  27              	.LVL0:
  28              	.LFB421:
  29              		.file 1 "Core/Src/robot/robot_tasks.cpp"
   1:Core/Src/robot/robot_tasks.cpp **** #include "FreeRTOS.h"
   2:Core/Src/robot/robot_tasks.cpp **** #include "task.h"
   3:Core/Src/robot/robot_tasks.cpp **** #include "main.h"
   4:Core/Src/robot/robot_tasks.cpp **** #include "cmsis_os.h"
   5:Core/Src/robot/robot_tasks.cpp **** #include "semphr.h"
   6:Core/Src/robot/robot_tasks.cpp **** #include"robot_operation.h"
   7:Core/Src/robot/robot_tasks.cpp **** extern SemaphoreHandle_t binSem;
   8:Core/Src/robot/robot_tasks.cpp **** extern JoyStick joystick;
   9:Core/Src/robot/robot_tasks.cpp **** extern "C" void DefaultTask(void const * argument);
  10:Core/Src/robot/robot_tasks.cpp **** extern "C"  void StartUpdateTask(void const * argument);
  11:Core/Src/robot/robot_tasks.cpp **** extern "C" void StartRunningTask(void const * argument);
  12:Core/Src/robot/robot_tasks.cpp **** void StartRunningTask(void const * argument)
  13:Core/Src/robot/robot_tasks.cpp **** {
  30              		.loc 1 13 1 view -0
  31              		.cfi_startproc
  32              		@ Volatile: function does not return.
  33              		@ args = 0, pretend = 0, frame = 0
  34              		@ frame_needed = 0, uses_anonymous_args = 0
  35              		.loc 1 13 1 is_stmt 0 view .LVU1
  36 0000 08B5     		push	{r3, lr}
  37              	.LCFI0:
  38              		.cfi_def_cfa_offset 8
  39              		.cfi_offset 3, -8
  40              		.cfi_offset 14, -4
  14:Core/Src/robot/robot_tasks.cpp ****      robo_init();
  41              		.loc 1 14 6 is_stmt 1 view .LVU2
  42              		.loc 1 14 15 is_stmt 0 view .LVU3
  43 0002 FFF7FEFF 		bl	_Z9robo_initv
  44              	.LVL1:
ARM GAS  /tmp/ccsgI9K4.s 			page 2


  15:Core/Src/robot/robot_tasks.cpp ****      osDelay(10);
  45              		.loc 1 15 6 is_stmt 1 view .LVU4
  46              		.loc 1 15 13 is_stmt 0 view .LVU5
  47 0006 0A20     		movs	r0, #10
  48 0008 FFF7FEFF 		bl	osDelay
  49              	.LVL2:
  50              	.L2:
  16:Core/Src/robot/robot_tasks.cpp ****     for(;;){
  51              		.loc 1 16 5 is_stmt 1 discriminator 1 view .LVU6
  17:Core/Src/robot/robot_tasks.cpp ****     //uint8_t dt=HAL_GetTick();
  18:Core/Src/robot/robot_tasks.cpp ****     //printf("entered runing tasks\n");
  19:Core/Src/robot/robot_tasks.cpp ****    //xSemaphoreTake(binSem, osWaitForever);
  20:Core/Src/robot/robot_tasks.cpp ****     robo_play();
  52              		.loc 1 20 5 discriminator 1 view .LVU7
  53              		.loc 1 20 14 is_stmt 0 discriminator 1 view .LVU8
  54 000c FFF7FEFF 		bl	_Z9robo_playv
  55              	.LVL3:
  21:Core/Src/robot/robot_tasks.cpp ****     osDelay(SAMPLE_TIME);
  56              		.loc 1 21 5 is_stmt 1 discriminator 1 view .LVU9
  57              		.loc 1 21 12 is_stmt 0 discriminator 1 view .LVU10
  58 0010 0A20     		movs	r0, #10
  59 0012 FFF7FEFF 		bl	osDelay
  60              	.LVL4:
  16:Core/Src/robot/robot_tasks.cpp ****     for(;;){
  61              		.loc 1 16 5 is_stmt 1 discriminator 1 view .LVU11
  62 0016 F9E7     		b	.L2
  63              		.cfi_endproc
  64              	.LFE421:
  66              		.section	.text.StartUpdateTask,"ax",%progbits
  67              		.align	1
  68              		.global	StartUpdateTask
  69              		.syntax unified
  70              		.thumb
  71              		.thumb_func
  72              		.fpu fpv4-sp-d16
  74              	StartUpdateTask:
  75              	.LFB422:
  22:Core/Src/robot/robot_tasks.cpp ****    // xSemaphoreGive(binSem);
  23:Core/Src/robot/robot_tasks.cpp ****    /* uint16_t ellapsed_time=HAL_GetTick()-dt;
  24:Core/Src/robot/robot_tasks.cpp ****    if(ellapsed_time<SAMPLE_TIME)
  25:Core/Src/robot/robot_tasks.cpp ****       {
  26:Core/Src/robot/robot_tasks.cpp ****           osDelay(SAMPLE_TIME-ellapsed_time);
  27:Core/Src/robot/robot_tasks.cpp **** 
  28:Core/Src/robot/robot_tasks.cpp ****       }
  29:Core/Src/robot/robot_tasks.cpp ****     else
  30:Core/Src/robot/robot_tasks.cpp ****     {
  31:Core/Src/robot/robot_tasks.cpp ****      printf("Timing delay occurs at running portion\n");
  32:Core/Src/robot/robot_tasks.cpp **** 
  33:Core/Src/robot/robot_tasks.cpp ****     }*/
  34:Core/Src/robot/robot_tasks.cpp ****     }
  35:Core/Src/robot/robot_tasks.cpp **** }
  36:Core/Src/robot/robot_tasks.cpp **** void StartUpdateTask(void const * argument)
  37:Core/Src/robot/robot_tasks.cpp **** {
  76              		.loc 1 37 1 view -0
  77              		.cfi_startproc
  78              		@ Volatile: function does not return.
  79              		@ args = 0, pretend = 0, frame = 0
ARM GAS  /tmp/ccsgI9K4.s 			page 3


  80              		@ frame_needed = 0, uses_anonymous_args = 0
  81              	.LVL5:
  82              		.loc 1 37 1 is_stmt 0 view .LVU13
  83 0000 08B5     		push	{r3, lr}
  84              	.LCFI1:
  85              		.cfi_def_cfa_offset 8
  86              		.cfi_offset 3, -8
  87              		.cfi_offset 14, -4
  88              	.LVL6:
  89              	.L5:
  38:Core/Src/robot/robot_tasks.cpp ****   for(;;)
  90              		.loc 1 38 3 is_stmt 1 discriminator 1 view .LVU14
  39:Core/Src/robot/robot_tasks.cpp ****   {
  40:Core/Src/robot/robot_tasks.cpp ****     //printf("entered update tasks\n");
  41:Core/Src/robot/robot_tasks.cpp ****     joystick.parse_JoyData();
  91              		.loc 1 41 5 discriminator 1 view .LVU15
  92              		.loc 1 41 27 is_stmt 0 discriminator 1 view .LVU16
  93 0002 0348     		ldr	r0, .L7
  94 0004 FFF7FEFF 		bl	_ZN8JoyStick13parse_JoyDataEv
  95              	.LVL7:
  42:Core/Src/robot/robot_tasks.cpp ****     osDelay(1);
  96              		.loc 1 42 5 is_stmt 1 discriminator 1 view .LVU17
  97              		.loc 1 42 12 is_stmt 0 discriminator 1 view .LVU18
  98 0008 0120     		movs	r0, #1
  99 000a FFF7FEFF 		bl	osDelay
 100              	.LVL8:
  38:Core/Src/robot/robot_tasks.cpp ****   for(;;)
 101              		.loc 1 38 3 is_stmt 1 discriminator 1 view .LVU19
 102 000e F8E7     		b	.L5
 103              	.L8:
 104              		.align	2
 105              	.L7:
 106 0010 00000000 		.word	joystick
 107              		.cfi_endproc
 108              	.LFE422:
 110              		.text
 111              	.Letext0:
 112              		.file 2 "/home/love/Documents/gcc-arm-none-eabi-10-2020-q4-major/arm-none-eabi/include/machine/_de
 113              		.file 3 "/home/love/Documents/gcc-arm-none-eabi-10-2020-q4-major/arm-none-eabi/include/sys/_stdint
 114              		.file 4 "Drivers/CMSIS/Device/ST/STM32F4xx/Include/stm32f407xx.h"
 115              		.file 5 "Drivers/STM32F4xx_HAL_Driver/Inc/stm32f4xx_hal_def.h"
 116              		.file 6 "Drivers/STM32F4xx_HAL_Driver/Inc/stm32f4xx_hal_dma.h"
 117              		.file 7 "Drivers/STM32F4xx_HAL_Driver/Inc/stm32f4xx_hal_uart.h"
 118              		.file 8 "/home/love/Documents/gcc-arm-none-eabi-10-2020-q4-major/arm-none-eabi/include/c++/10.2.1/
 119              		.file 9 "/home/love/Documents/gcc-arm-none-eabi-10-2020-q4-major/arm-none-eabi/include/c++/10.2.1/
 120              		.file 10 "/home/love/Documents/gcc-arm-none-eabi-10-2020-q4-major/arm-none-eabi/include/c++/10.2.1
 121              		.file 11 "/home/love/Documents/gcc-arm-none-eabi-10-2020-q4-major/arm-none-eabi/include/math.h"
 122              		.file 12 "/home/love/Documents/gcc-arm-none-eabi-10-2020-q4-major/arm-none-eabi/include/c++/10.2.1
 123              		.file 13 "Core/Inc/devs/joystick.h"
 124              		.file 14 "Core/Inc/utils/container/queue_custom.h"
 125              		.file 15 "Middlewares/Third_Party/FreeRTOS/Source/CMSIS_RTOS/cmsis_os.h"
 126              		.file 16 "Core/Inc/robot/robo_init.h"
 127              		.file 17 "Core/Inc/robot/robot_operation.h"
 128              		.file 18 "<built-in>"
ARM GAS  /tmp/ccsgI9K4.s 			page 4

